(dp0
S'survivors'
p1
(lp2
(dp3
VStrength
p4
I0
sVEvasion
p5
I0
sVArms
p6
I0
sVsex
p7
VM
p8
sVcreated_on
p9
cdatetime
datetime
p10
(S'\x07\xe1\x01\x03\x0c\x126\n5H'
p11
tp12
Rp13
sVsettlement
p14
ccopy_reg
_reconstructor
p15
(cbson.objectid
ObjectId
p16
c__builtin__
object
p17
Ntp18
Rp19
S'Xk\xeb\x0eJ\xf5\xca\x17\x8d\xfb\xc7\x85'
p20
bsVMovement
p21
I5
sVBody
p22
I0
sVHead
p23
I0
sVLegs
p24
I0
sVdisorders
p25
(lp26
sVweapon_proficiency_type
p27
V
p28
sVcreated_by
p29
g15
(g16
g17
Ntp30
Rp31
S'Xk\xd1\x9aJ\xf5\xca\x13\xb3\x1a%\xce'
p32
bsVUnderstanding
p33
I0
sVCourage
p34
I0
sVborn_in_ly
p35
I0
sVInsanity
p36
I0
sVAccuracy
p37
I0
sVemail
p38
Vqa@kdm-manager.com
p39
sVcannot_spend_survival
p40
Vchecked
p41
sVWaist
p42
I0
sVsurvival
p43
I0
sVskip_next_hunt
p44
Vchecked
p45
sVWeapon Proficiency
p46
I0
sVabilities_and_impairments
p47
(lp48
VIntracranial hemorrhage
p49
aVRuptured spleen
p50
asVepithets
p51
(lp52
VFounder
p53
asVhunt_xp
p54
I1
sVLuck
p55
I0
sVfighting_arts
p56
(lp57
sVname
p58
VOliver
p59
sVreturning_survivor
p60
(lp61
I0
asV_id
p62
g15
(g16
g17
Ntp63
Rp64
S'Xk\xeb\x0eJ\xf5\xca\x17\x8d\xfb\xc7\x8a'
p65
bsVSpeed
p66
I0
sa(dp67
VStrength
p68
I0
sVEvasion
p69
I0
sVArms
p70
I0
sVsex
p71
VM
p72
sVcreated_on
p73
g10
(S'\x07\xe1\x01\x03\x0c\x126\no\xe0'
p74
tp75
Rp76
sVsettlement
p77
g15
(g16
g17
Ntp78
Rp79
S'Xk\xeb\x0eJ\xf5\xca\x17\x8d\xfb\xc7\x85'
p80
bsVAccuracy
p81
I0
sVBody
p82
I0
sVHead
p83
I0
sVLegs
p84
I0
sVdisorders
p85
(lp86
sVweapon_proficiency_type
p87
g28
sVcreated_by
p88
g15
(g16
g17
Ntp89
Rp90
S'Xk\xd1\x9aJ\xf5\xca\x13\xb3\x1a%\xce'
p91
bsVUnderstanding
p92
I0
sVCourage
p93
I0
sVborn_in_ly
p94
I0
sVInsanity
p95
I0
sVMovement
p96
I5
sVemail
p97
Vqa@kdm-manager.com
p98
sVWaist
p99
I0
sVsurvival
p100
I0
sVWeapon Proficiency
p101
I0
sVabilities_and_impairments
p102
(lp103
sVepithets
p104
(lp105
VFounder
p106
asVhunt_xp
p107
I1
sVLuck
p108
I0
sVfighting_arts
p109
(lp110
sVname
p111
VRashad
p112
sVreturning_survivor
p113
(lp114
I0
asV_id
p115
g15
(g16
g17
Ntp116
Rp117
S'Xk\xeb\x0eJ\xf5\xca\x17\x8d\xfb\xc7\x90'
p118
bsVSpeed
p119
I0
sa(dp120
VStrength
p121
I0
sVEvasion
p122
I0
sVArms
p123
I0
sVsex
p124
VF
p125
sVcreated_on
p126
g10
(S'\x07\xe1\x01\x03\x0c\x126\n\xa6\x90'
p127
tp128
Rp129
sVsettlement
p130
g15
(g16
g17
Ntp131
Rp132
S'Xk\xeb\x0eJ\xf5\xca\x17\x8d\xfb\xc7\x85'
p133
bsVAccuracy
p134
I0
sVBody
p135
I0
sVHead
p136
I0
sVLegs
p137
I0
sVdisorders
p138
(lp139
VTraumatized
p140
asVweapon_proficiency_type
p141
g28
sVcreated_by
p142
g15
(g16
g17
Ntp143
Rp144
S'Xk\xd1\x9aJ\xf5\xca\x13\xb3\x1a%\xce'
p145
bsVUnderstanding
p146
I0
sVCourage
p147
I0
sVborn_in_ly
p148
I0
sVInsanity
p149
V7
p150
sVMovement
p151
I5
sVemail
p152
Vqa@kdm-manager.com
p153
sVWaist
p154
I0
sVsurvival
p155
I1
sVWeapon Proficiency
p156
I0
sVabilities_and_impairments
p157
(lp158
sVepithets
p159
(lp160
VFounder
p161
asVhunt_xp
p162
I1
sVLuck
p163
I0
sVfighting_arts
p164
(lp165
sVname
p166
VMaleficent
p167
sVfavorite
p168
Vchecked
p169
sVreturning_survivor
p170
(lp171
I0
asV_id
p172
g15
(g16
g17
Ntp173
Rp174
S'Xk\xeb\x0eJ\xf5\xca\x17\x8d\xfb\xc7\x96'
p175
bsVSpeed
p176
I0
sa(dp177
VStrength
p178
I0
sVEvasion
p179
I0
sVArms
p180
I0
sVsex
p181
VF
p182
sVcreated_on
p183
g10
(S'\x07\xe1\x01\x03\x0c\x126\n\xe1('
p184
tp185
Rp186
sVsettlement
p187
g15
(g16
g17
Ntp188
Rp189
S'Xk\xeb\x0eJ\xf5\xca\x17\x8d\xfb\xc7\x85'
p190
bsVMovement
p191
I5
sVBody
p192
I0
sVHead
p193
I0
sVLegs
p194
I0
sVdisorders
p195
(lp196
sVweapon_proficiency_type
p197
g28
sVcreated_by
p198
g15
(g16
g17
Ntp199
Rp200
S'Xk\xd1\x9aJ\xf5\xca\x13\xb3\x1a%\xce'
p201
bsVUnderstanding
p202
I0
sVCourage
p203
I0
sVborn_in_ly
p204
I0
sVInsanity
p205
I0
sVAccuracy
p206
I0
sVemail
p207
Vqa@kdm-manager.com
p208
sVWaist
p209
I0
sVsurvival
p210
I0
sVWeapon Proficiency
p211
I0
sVabilities_and_impairments
p212
(lp213
sVepithets
p214
(lp215
VFounder
p216
asVhunt_xp
p217
I1
sVLuck
p218
I0
sVfighting_arts
p219
(lp220
sVname
p221
VElena
p222
sVreturning_survivor
p223
(lp224
I0
asV_id
p225
g15
(g16
g17
Ntp226
Rp227
S'Xk\xeb\x0eJ\xf5\xca\x17\x8d\xfb\xc7\x9c'
p228
bsVSpeed
p229
I0
sa(dp230
VStrength
p231
I0
sVEvasion
p232
I0
sVArms
p233
I0
sVsex
p234
VM
p235
sVcreated_on
p236
g10
(S'\x07\xe1\x01\x03\r\x07\x19\x05\xa1h'
p237
tp238
Rp239
sVsettlement
p240
g15
(g16
g17
Ntp241
Rp242
S'Xk\xeb\x0eJ\xf5\xca\x17\x8d\xfb\xc7\x85'
p243
bsVMovement
p244
I5
sVBody
p245
I0
sVHead
p246
I0
sVLegs
p247
I0
sVdisorders
p248
(lp249
sVweapon_proficiency_type
p250
g28
sVcreated_by
p251
g15
(g16
g17
Ntp252
Rp253
S'Xk\xd1\x9aJ\xf5\xca\x13\xb3\x1a%\xce'
p254
bsVUnderstanding
p255
I0
sVCourage
p256
I0
sVborn_in_ly
p257
I0
sVInsanity
p258
I0
sVAccuracy
p259
I0
sVemail
p260
Vqa@kdm-manager.com
p261
sVWaist
p262
I0
sVsurvival
p263
I1
sVWeapon Proficiency
p264
I0
sVabilities_and_impairments
p265
(lp266
sVepithets
p267
(lp268
VFounder
p269
asVhunt_xp
p270
I0
sVLuck
p271
I0
sVfighting_arts
p272
(lp273
sVname
p274
VFester
p275
sVfavorite
p276
Vchecked
p277
sVpublic
p278
Vchecked
p279
sV_id
p280
g15
(g16
g17
Ntp281
Rp282
S'Xk\xf6mJ\xf5\xca\x19\xf5\xc8\xa3j'
p283
bsVSpeed
p284
I0
sa(dp285
VStrength
p286
I0
sVEvasion
p287
I0
sVArms
p288
I0
sVsex
p289
VM
p290
sVcreated_on
p291
g10
(S'\x07\xe1\x01\x03\r\x07\x19\x05\xb8\xd8'
p292
tp293
Rp294
sVsettlement
p295
g15
(g16
g17
Ntp296
Rp297
S'Xk\xeb\x0eJ\xf5\xca\x17\x8d\xfb\xc7\x85'
p298
bsVMovement
p299
I5
sVBody
p300
I0
sVHead
p301
I0
sVLegs
p302
I0
sVdisorders
p303
(lp304
sVweapon_proficiency_type
p305
g28
sVcreated_by
p306
g15
(g16
g17
Ntp307
Rp308
S'Xk\xd1\x9aJ\xf5\xca\x13\xb3\x1a%\xce'
p309
bsVUnderstanding
p310
I0
sVCourage
p311
I0
sVborn_in_ly
p312
I0
sVInsanity
p313
I0
sVAccuracy
p314
I0
sVemail
p315
Vqa@kdm-manager.com
p316
sVWaist
p317
I0
sVsurvival
p318
I1
sVWeapon Proficiency
p319
I0
sVabilities_and_impairments
p320
(lp321
sVepithets
p322
(lp323
VFounder
p324
asVhunt_xp
p325
I0
sVLuck
p326
I0
sVfighting_arts
p327
(lp328
sVname
p329
VHipolito
p330
sVpublic
p331
Vchecked
p332
sV_id
p333
g15
(g16
g17
Ntp334
Rp335
S'Xk\xf6mJ\xf5\xca\x19\xf5\xc8\xa3n'
p336
bsVSpeed
p337
I0
sa(dp338
VStrength
p339
I0
sVEvasion
p340
I0
sVArms
p341
I0
sVsex
p342
VM
p343
sVcreated_on
p344
g10
(S'\x07\xe1\x01\x03\r\x07\x19\x05\xcc`'
p345
tp346
Rp347
sVsettlement
p348
g15
(g16
g17
Ntp349
Rp350
S'Xk\xeb\x0eJ\xf5\xca\x17\x8d\xfb\xc7\x85'
p351
bsVMovement
p352
I5
sVBody
p353
I0
sVHead
p354
I0
sVLegs
p355
I0
sVdisorders
p356
(lp357
sVweapon_proficiency_type
p358
g28
sVcreated_by
p359
g15
(g16
g17
Ntp360
Rp361
S'Xk\xd1\x9aJ\xf5\xca\x13\xb3\x1a%\xce'
p362
bsVUnderstanding
p363
I0
sVCourage
p364
I0
sVborn_in_ly
p365
I0
sVInsanity
p366
I0
sVAccuracy
p367
I0
sVemail
p368
Vqa@kdm-manager.com
p369
sVWaist
p370
I0
sVsurvival
p371
I1
sVWeapon Proficiency
p372
I0
sVabilities_and_impairments
p373
(lp374
sVepithets
p375
(lp376
VFounder
p377
asVhunt_xp
p378
I0
sVLuck
p379
I0
sVfighting_arts
p380
(lp381
sVname
p382
VBrooks
p383
sVpublic
p384
Vchecked
p385
sV_id
p386
g15
(g16
g17
Ntp387
Rp388
S'Xk\xf6mJ\xf5\xca\x19\xf5\xc8\xa3r'
p389
bsVSpeed
p390
I0
sa(dp391
VStrength
p392
I0
sVEvasion
p393
I0
sVArms
p394
I0
sVsex
p395
VM
p396
sVcreated_on
p397
g10
(S'\x07\xe1\x01\x03\r\x07\x19\x05\xe3\xd0'
p398
tp399
Rp400
sVsettlement
p401
g15
(g16
g17
Ntp402
Rp403
S'Xk\xeb\x0eJ\xf5\xca\x17\x8d\xfb\xc7\x85'
p404
bsVMovement
p405
I5
sVBody
p406
I0
sVHead
p407
I0
sVLegs
p408
I0
sVdisorders
p409
(lp410
sVweapon_proficiency_type
p411
g28
sVcreated_by
p412
g15
(g16
g17
Ntp413
Rp414
S'Xk\xd1\x9aJ\xf5\xca\x13\xb3\x1a%\xce'
p415
bsVUnderstanding
p416
V1
p417
sVCourage
p418
V1
p419
sVborn_in_ly
p420
I0
sVInsanity
p421
I0
sVAccuracy
p422
I0
sVemail
p423
Vqa@kdm-manager.com
p424
sVWaist
p425
I0
sVsurvival
p426
I1
sVskip_next_hunt
p427
Vchecked
p428
sVWeapon Proficiency
p429
I0
sVabilities_and_impairments
p430
(lp431
sVepithets
p432
(lp433
VFounder
p434
aVSpeaker of the First Words
p435
asVhunt_xp
p436
I0
sVLuck
p437
I0
sVfighting_arts
p438
(lp439
sVname
p440
VKillian
p441
sVfavorite
p442
Vchecked
p443
sVpublic
p444
Vchecked
p445
sV_id
p446
g15
(g16
g17
Ntp447
Rp448
S'Xk\xf6mJ\xf5\xca\x19\xf5\xc8\xa3v'
p449
bsVSpeed
p450
I0
sa(dp451
VStrength
p452
I0
sVEvasion
p453
I0
sVArms
p454
I0
sVsex
p455
VF
p456
sVcreated_on
p457
g10
(S'\x07\xe1\x01\x03\r\x07\x19\x05\xf7X'
p458
tp459
Rp460
sVsettlement
p461
g15
(g16
g17
Ntp462
Rp463
S'Xk\xeb\x0eJ\xf5\xca\x17\x8d\xfb\xc7\x85'
p464
bsVMovement
p465
I5
sVBody
p466
I0
sVHead
p467
I0
sVLegs
p468
I0
sVdisorders
p469
(lp470
sVweapon_proficiency_type
p471
g28
sVcreated_by
p472
g15
(g16
g17
Ntp473
Rp474
S'Xk\xd1\x9aJ\xf5\xca\x13\xb3\x1a%\xce'
p475
bsVUnderstanding
p476
I0
sVCourage
p477
I0
sVborn_in_ly
p478
I0
sVInsanity
p479
I0
sVAccuracy
p480
I0
sVemail
p481
Vqa@kdm-manager.com
p482
sVWaist
p483
I0
sVsurvival
p484
I1
sVWeapon Proficiency
p485
I0
sVabilities_and_impairments
p486
(lp487
sVepithets
p488
(lp489
VFounder
p490
asVhunt_xp
p491
I0
sVLuck
p492
I0
sVfighting_arts
p493
(lp494
sVname
p495
VGenevieve
p496
sVpublic
p497
Vchecked
p498
sV_id
p499
g15
(g16
g17
Ntp500
Rp501
S'Xk\xf6mJ\xf5\xca\x19\xf5\xc8\xa3z'
p502
bsVSpeed
p503
I0
sa(dp504
VStrength
p505
I0
sVEvasion
p506
I0
sVArms
p507
I0
sVsex
p508
VF
p509
sVcreated_on
p510
g10
(S'\x07\xe1\x01\x03\r\x07\x19\x06\n\xe0'
p511
tp512
Rp513
sVsettlement
p514
g15
(g16
g17
Ntp515
Rp516
S'Xk\xeb\x0eJ\xf5\xca\x17\x8d\xfb\xc7\x85'
p517
bsVMovement
p518
I5
sVBody
p519
I0
sVHead
p520
I0
sVLegs
p521
I0
sVdisorders
p522
(lp523
sVweapon_proficiency_type
p524
g28
sVcreated_by
p525
g15
(g16
g17
Ntp526
Rp527
S'Xk\xd1\x9aJ\xf5\xca\x13\xb3\x1a%\xce'
p528
bsVUnderstanding
p529
I0
sVCourage
p530
I0
sVborn_in_ly
p531
I0
sVInsanity
p532
I0
sVAccuracy
p533
I0
sVemail
p534
Vqa@kdm-manager.com
p535
sVWaist
p536
I0
sVsurvival
p537
I1
sVWeapon Proficiency
p538
I0
sVabilities_and_impairments
p539
(lp540
sVepithets
p541
(lp542
VFounder
p543
asVhunt_xp
p544
I0
sVLuck
p545
I0
sVfighting_arts
p546
(lp547
sVname
p548
VDesdemona
p549
sVpublic
p550
Vchecked
p551
sV_id
p552
g15
(g16
g17
Ntp553
Rp554
S'Xk\xf6mJ\xf5\xca\x19\xf5\xc8\xa3~'
p555
bsVSpeed
p556
I0
sa(dp557
VStrength
p558
I0
sVEvasion
p559
I0
sVArms
p560
I0
sVsex
p561
VF
p562
sVcreated_on
p563
g10
(S'\x07\xe1\x01\x03\r\x07\x19\x06"P'
p564
tp565
Rp566
sVsettlement
p567
g15
(g16
g17
Ntp568
Rp569
S'Xk\xeb\x0eJ\xf5\xca\x17\x8d\xfb\xc7\x85'
p570
bsVMovement
p571
I5
sVBody
p572
I0
sVHead
p573
I0
sVLegs
p574
I0
sVdisorders
p575
(lp576
sVweapon_proficiency_type
p577
g28
sVcreated_by
p578
g15
(g16
g17
Ntp579
Rp580
S'Xk\xd1\x9aJ\xf5\xca\x13\xb3\x1a%\xce'
p581
bsVUnderstanding
p582
I0
sVCourage
p583
I0
sVborn_in_ly
p584
I0
sVInsanity
p585
I0
sVAccuracy
p586
I0
sVemail
p587
Vqa@kdm-manager.com
p588
sVWaist
p589
I0
sVsurvival
p590
I1
sVWeapon Proficiency
p591
I0
sVabilities_and_impairments
p592
(lp593
sVepithets
p594
(lp595
VFounder
p596
asVhunt_xp
p597
I0
sVLuck
p598
I0
sVfighting_arts
p599
(lp600
sVname
p601
VDiana
p602
sVpublic
p603
Vchecked
p604
sV_id
p605
g15
(g16
g17
Ntp606
Rp607
S'Xk\xf6mJ\xf5\xca\x19\xf5\xc8\xa3\x82'
p608
bsVSpeed
p609
I0
sa(dp610
VStrength
p611
I0
sVEvasion
p612
I0
sVArms
p613
I0
sVsex
p614
VF
p615
sVcreated_on
p616
g10
(S'\x07\xe1\x01\x03\r\x07\x19\x06|('
p617
tp618
Rp619
sVsettlement
p620
g15
(g16
g17
Ntp621
Rp622
S'Xk\xeb\x0eJ\xf5\xca\x17\x8d\xfb\xc7\x85'
p623
bsVMovement
p624
I5
sVBody
p625
I0
sVHead
p626
I0
sVLegs
p627
I0
sVdisorders
p628
(lp629
sVweapon_proficiency_type
p630
g28
sVcreated_by
p631
g15
(g16
g17
Ntp632
Rp633
S'Xk\xd1\x9aJ\xf5\xca\x13\xb3\x1a%\xce'
p634
bsVUnderstanding
p635
I0
sVCourage
p636
I0
sVborn_in_ly
p637
I0
sVInsanity
p638
I0
sVAccuracy
p639
I0
sVemail
p640
Vqa@kdm-manager.com
p641
sVWaist
p642
I0
sVsurvival
p643
I1
sVWeapon Proficiency
p644
I0
sVabilities_and_impairments
p645
(lp646
sVepithets
p647
(lp648
VFounder
p649
asVhunt_xp
p650
I0
sVLuck
p651
I0
sVfighting_arts
p652
(lp653
sVname
p654
VRaina
p655
sVpublic
p656
Vchecked
p657
sV_id
p658
g15
(g16
g17
Ntp659
Rp660
S'Xk\xf6mJ\xf5\xca\x19\xf5\xc8\xa3\x86'
p661
bsVSpeed
p662
I0
sasS'settlements'
p663
(lp664
(dp665
Vquarries
p666
(lp667
Vwhite_lion
p668
asVcampaign
p669
VPeople of the Lantern
p670
sVlocations
p671
(lp672
VSkinnery
p673
aVLantern Hoard
p674
aVBone Smith
p675
aVOrgan Grinder
p676
asVinnovations
p677
(lp678
VLanguage
p679
asVcreated_on
p680
g10
(S'\x07\xe1\x01\x03\x0c\x126\x08\xbeH'
p681
tp682
Rp683
sVtimeline_version
p684
F1.1
sVdefeated_monsters
p685
(lp686
VWhite Lion (First Story)
p687
asVmonsters_version
p688
F1.0
sVstorage
p689
(lp690
VFounding Stone
p691
aVFounding Stone
p692
aVCloth
p693
aVCloth
p694
aVCloth
p695
aVCloth
p696
aVBone Blade
p697
aVBone Axe
p698
aVLion Testes
p699
aVMonster Grease
p700
aVRawhide Boots
p701
aVRawhide Boots
p702
aVRawhide Gloves
p703
aVRawhide Headband
p704
aVMonster Organ
p705
asVcreated_by
p706
g15
(g16
g17
Ntp707
Rp708
S'Xk\xd1\x9aJ\xf5\xca\x13\xb3\x1a%\xce'
p709
bsVcurrent_quarry
p710
NsVnemesis_encounters
p711
(dp712
Vbutcher
p713
(lp714
ssVlost_settlements
p715
I0
sVtimeline
p716
(lp717
(dp718
Vshowdown_event
p719
(lp720
(dp721
Vuser_login
p722
Vqa@kdm-manager.com
p723
sVtype
p724
Vshowdown_event
p725
sVname
p726
VWhite Lion (First Story)
p727
sVly
p728
I0
sasVsettlement_event
p729
(lp730
(dp731
Vhandle
p732
Vcore_first_day
p733
sVtype
p734
Vsettlement_event
p735
sVname
p736
VFirst Day
p737
sasVyear
p738
I0
sa(dp739
Vstory_event
p740
(lp741
(dp742
Vhandle
p743
Vcore_returning_survivors
p744
sVtype
p745
Vstory_event
p746
sVname
p747
VReturning Survivors
p748
sVpage
p749
I151
sasVyear
p750
I1
sa(dp751
Vstory_event
p752
(lp753
(dp754
Vhandle
p755
Vcore_endless_screams
p756
sVtype
p757
Vstory_event
p758
sVname
p759
VEndless Screams
p760
sVpage
p761
I115
sasVyear
p762
I2
sa(dp763
Vyear
p764
I3
sa(dp765
Vnemesis_encounter
p766
(lp767
(dp768
Vname
p769
VNemesis Encounter: Butcher
p770
sasVyear
p771
I4
sa(dp772
Vspecial_showdown
p773
(lp774
(dp775
Vtype
p776
Vspecial_showdown
p777
sVname
p778
VSpecial Showdown - Manhunter
p779
sVly
p780
I5
sasVstory_event
p781
(lp782
(dp783
Vhandle
p784
Vcore_hands_of_heat
p785
sVtype
p786
Vstory_event
p787
sVname
p788
VHands of Heat
p789
sVpage
p790
I117
sa(dp791
Vhandle
p792
Vmh_hanged_man
p793
sVname
p794
VThe Hanged Man
p795
sVexpansion
p796
Vmanhunter
p797
sVtype
p798
Vstory_event
p799
sVpage
p800
I3
sVly
p801
I5
sasVyear
p802
I5
sa(dp803
Vstory_event
p804
(lp805
(dp806
Vhandle
p807
Vcore_armored_strangers
p808
sVtype
p809
Vstory_event
p810
sVname
p811
VArmored Strangers
p812
sVpage
p813
I103
sasVyear
p814
I6
sa(dp815
Vstory_event
p816
(lp817
(dp818
Vhandle
p819
Vcore_phoenix_feather
p820
sVtype
p821
Vstory_event
p822
sVname
p823
VPhoenix Feather
p824
sVpage
p825
I139
sasVyear
p826
I7
sa(dp827
Vyear
p828
I8
sa(dp829
Vnemesis_encounter
p830
(lp831
(dp832
Vname
p833
VNemesis Encounter: King's Man
p834
sasVyear
p835
I9
sa(dp836
Vspecial_showdown
p837
(lp838
(dp839
Vtype
p840
Vspecial_showdown
p841
sVname
p842
VSpecial Showdown - Manhunter
p843
sVly
p844
I10
sasVyear
p845
I10
sa(dp846
Vstory_event
p847
(lp848
(dp849
Vhandle
p850
Vcore_regal_visit
p851
sVtype
p852
Vstory_event
p853
sVname
p854
VRegal Visit
p855
sVpage
p856
I149
sasVyear
p857
I11
sa(dp858
Vstory_event
p859
(lp860
(dp861
Vhandle
p862
Vcore_conviction
p863
sVtype
p864
Vstory_event
p865
sVname
p866
VPrinciple: Conviction
p867
sVpage
p868
I141
sasVyear
p869
I12
sa(dp870
Vstory_event
p871
(lp872
(dp873
Vhandle
p874
Vlgod_silver_city
p875
sVname
p876
VThe Silver City
p877
sVexpansion
p878
Vlion_god
p879
sVtype
p880
Vstory_event
p881
sVpage
p882
I2
sVly
p883
I13
sasVyear
p884
I13
sa(dp885
Vyear
p886
I14
sa(dp887
Vyear
p888
I15
sa(dp889
Vnemesis_encounter
p890
(lp891
(dp892
Vname
p893
VNemesis Encounter
p894
sasVspecial_showdown
p895
(lp896
(dp897
Vtype
p898
Vspecial_showdown
p899
sVname
p900
VSpecial Showdown - Manhunter
p901
sVly
p902
I16
sasVyear
p903
I16
sa(dp904
Vyear
p905
I17
sa(dp906
Vyear
p907
I18
sa(dp908
Vnemesis_encounter
p909
(lp910
(dp911
Vname
p912
VNemesis Encounter
p913
sasVyear
p914
I19
sa(dp915
Vstory_event
p916
(lp917
(dp918
Vhandle
p919
Vcore_watched
p920
sVtype
p921
Vstory_event
p922
sVname
p923
VWatched
p924
sVpage
p925
I175
sasVyear
p926
I20
sa(dp927
Vyear
p928
I21
sa(dp929
Vspecial_showdown
p930
(lp931
(dp932
Vtype
p933
Vspecial_showdown
p934
sVname
p935
VSpecial Showdown - Manhunter
p936
sVly
p937
I22
sasVyear
p938
I22
sa(dp939
Vnemesis_encounter
p940
(lp941
(dp942
Vname
p943
VNemesis Encounter: Level 3
p944
sasVyear
p945
I23
sa(dp946
Vyear
p947
I24
sa(dp948
Vyear
p949
I25
sa(dp950
Vnemesis_encounter
p951
(lp952
(dp953
Vname
p954
VNemesis Encounter: Watcher
p955
sasVyear
p956
I26
sa(dp957
Vyear
p958
I27
sa(dp959
Vyear
p960
I28
sa(dp961
Vyear
p962
I29
sa(dp963
Vyear
p964
I30
sa(dp965
Vyear
p966
I31
sa(dp967
Vyear
p968
I32
sa(dp969
Vyear
p970
I33
sa(dp971
Vyear
p972
I34
sa(dp973
Vyear
p974
I35
sa(dp975
Vyear
p976
I36
sa(dp977
Vyear
p978
I37
sa(dp979
Vyear
p980
I38
sa(dp981
Vyear
p982
I39
sa(dp983
Vyear
p984
I40
sasVprinciples
p985
(lp986
sVexpansions_version
p987
F1.0
sVnemesis_monsters
p988
(lp989
Vbutcher
p990
asVendeavor_tokens
p991
I0
sVpopulation
p992
I12
sVname
p993
VHaven
p994
sVmilestone_story_events
p995
(lp996
sVlantern_year
p997
V1
p998
sVexpansions
p999
(lp1000
Vwhite_box
p1001
aVlion_god
p1002
aVlonely_tree
p1003
aVmanhunter
p1004
asVdeath_count
p1005
I0
sVadmins
p1006
(lp1007
Vqa@kdm-manager.com
p1008
asV_id
p1009
g15
(g16
g17
Ntp1010
Rp1011
S'Xk\xeb\x0eJ\xf5\xca\x17\x8d\xfb\xc7\x85'
p1012
bsVsurvival_limit
p1013
I2
sasS'user'
p1014
(dp1015
Vpassword
p1016
V22b58114a3fc845e856b98181e540d5a
p1017
sVlatest_activity
p1018
g10
(S'\x07\xe1\x01\x06\r\x153\n\xd9X'
p1019
tp1020
Rp1021
sVpreferences
p1022
(dp1023
sVcurrent_session
p1024
g15
(g16
g17
Ntp1025
Rp1026
S'Xo\xee\x14J\xf5\xcaC\xfa\r\xee\t'
p1027
bsVlatest_user_agent
p1028
VPC / Mac OS X 10.12.2 / Chrome 55.0.2883
p1029
sVcreated_on
p1030
g10
(S'\x07\xe1\x01\x03\n\x1e\x12\x03\xcc\xa8'
p1031
tp1032
Rp1033
sVlatest_action
p1034
Vmodified survivor Fester [M] of 'Haven' (586beb0e4af5ca178dfbc785)
p1035
sVactivity_log
p1036
(lp1037
(lp1038
g10
(S'\x07\xe1\x01\x06\t\x1e#\x08\xc20'
p1039
tp1040
Rp1041
aVchanged view to 'view_campaign' | 586d86a74af5ca32fb5731c8 | Lufenia
p1042
aa(lp1043
g10
(S'\x07\xe1\x01\x06\t\x1f\x0e\x0b\xf6\x80'
p1044
tp1045
Rp1046
aVchanged view to 'view_campaign' | 586d86a74af5ca32fb5731c8 | Lufenia
p1047
aa(lp1048
g10
(S'\x07\xe1\x01\x06\t#9\x04\xf1\xa0'
p1049
tp1050
Rp1051
aVchanged view to 'view_campaign' | 586d86a74af5ca32fb5731c8 | Lufenia
p1052
aa(lp1053
g10
(S'\x07\xe1\x01\x06\t)\x03\x0c{P'
p1054
tp1055
Rp1056
aVchanged view to 'view_campaign' | 586d86a74af5ca32fb5731c8 | Lufenia
p1057
aa(lp1058
g10
(S'\x07\xe1\x01\x06\t*\x14\x018\x80'
p1059
tp1060
Rp1061
aVchanged view to 'dashboard'
p1062
aa(lp1063
g10
(S'\x07\xe1\x01\x06\t*\x17\r\xd6\xf8'
p1064
tp1065
Rp1066
aVchanged view to 'view_campaign' | 586beb0e4af5ca178dfbc785 | Haven
p1067
aa(lp1068
g10
(S'\x07\xe1\x01\x06\r\x144\x0e%\x18'
p1069
tp1070
Rp1071
aVauthenticated successfully
p1072
aa(lp1073
g10
(S'\x07\xe1\x01\x06\r\x15\x13\x073\xc0'
p1074
tp1075
Rp1076
aVchanged view to 'view_campaign' | 586beb0e4af5ca178dfbc785 | Haven
p1077
aa(lp1078
g10
(S'\x07\xe1\x01\x06\r\x15-\x06=\xa8'
p1079
tp1080
Rp1081
aVchanged view to 'view_survivor' | 586bf66d4af5ca19f5c8a36a | Fester [M]
p1082
aa(lp1083
g10
(S'\x07\xe1\x01\x06\r\x153\n\xd9X'
p1084
tp1085
Rp1086
aVmodified survivor Fester [M] of 'Haven' (586beb0e4af5ca178dfbc785)
p1087
aasVlogin
p1088
Vqa@kdm-manager.com
p1089
sV_id
p1090
g15
(g16
g17
Ntp1091
Rp1092
S'Xk\xd1\x9aJ\xf5\xca\x13\xb3\x1a%\xce'
p1093
bsVlatest_sign_in
p1094
g10
(S'\x07\xe1\x01\x06\r\x144\r\xcb@'
p1095
tp1096
Rp1097
ssS'settlement_events'
p1098
(lp1099
(dp1100
Vevent_type
p1101
NsVcreated_by
p1102
g15
(g16
g17
Ntp1103
Rp1104
S'Xk\xd1\x9aJ\xf5\xca\x13\xb3\x1a%\xce'
p1105
bsVcreated_on
p1106
g10
(S'\x07\xe1\x01\x03\x0c\x126\n)\x90'
p1107
tp1108
Rp1109
sVsettlement_id
p1110
g15
(g16
g17
Ntp1111
Rp1112
S'Xk\xeb\x0eJ\xf5\xca\x17\x8d\xfb\xc7\x85'
p1113
bsV_id
p1114
g15
(g16
g17
Ntp1115
Rp1116
S'Xk\xeb\x0eJ\xf5\xca\x17\x8d\xfb\xc7\x86'
p1117
bsVevent
p1118
Vqa@kdm-manager.com added 'Founding Stone' x4 to settlement storage.
p1119
sVly
p1120
I0
sa(dp1121
Vevent_type
p1122
NsVcreated_by
p1123
g15
(g16
g17
Ntp1124
Rp1125
S'Xk\xd1\x9aJ\xf5\xca\x13\xb3\x1a%\xce'
p1126
bsVcreated_on
p1127
g10
(S'\x07\xe1\x01\x03\x0c\x126\n-x'
p1128
tp1129
Rp1130
sVsettlement_id
p1131
g15
(g16
g17
Ntp1132
Rp1133
S'Xk\xeb\x0eJ\xf5\xca\x17\x8d\xfb\xc7\x85'
p1134
bsV_id
p1135
g15
(g16
g17
Ntp1136
Rp1137
S'Xk\xeb\x0eJ\xf5\xca\x17\x8d\xfb\xc7\x87'
p1138
bsVevent
p1139
Vqa@kdm-manager.com added 'Cloth' x4 to settlement storage.
p1140
sVly
p1141
I0
sa(dp1142
Vevent_type
p1143
NsVcreated_by
p1144
g15
(g16
g17
Ntp1145
Rp1146
S'Xk\xd1\x9aJ\xf5\xca\x13\xb3\x1a%\xce'
p1147
bsVcreated_on
p1148
g10
(S'\x07\xe1\x01\x03\x0c\x126\n1`'
p1149
tp1150
Rp1151
sVsettlement_id
p1152
g15
(g16
g17
Ntp1153
Rp1154
S'Xk\xeb\x0eJ\xf5\xca\x17\x8d\xfb\xc7\x85'
p1155
bsV_id
p1156
g15
(g16
g17
Ntp1157
Rp1158
S'Xk\xeb\x0eJ\xf5\xca\x17\x8d\xfb\xc7\x88'
p1159
bsVevent
p1160
Vqa@kdm-manager.com is adding a new survivor to the settlement!
p1161
sVly
p1162
I0
sa(dp1163
Vevent_type
p1164
NsVcreated_by
p1165
g15
(g16
g17
Ntp1166
Rp1167
S'Xk\xd1\x9aJ\xf5\xca\x13\xb3\x1a%\xce'
p1168
bsVcreated_on
p1169
g10
(S'\x07\xe1\x01\x03\x0c\x126\n5H'
p1170
tp1171
Rp1172
sVsettlement_id
p1173
g15
(g16
g17
Ntp1174
Rp1175
S'Xk\xeb\x0eJ\xf5\xca\x17\x8d\xfb\xc7\x85'
p1176
bsV_id
p1177
g15
(g16
g17
Ntp1178
Rp1179
S'Xk\xeb\x0eJ\xf5\xca\x17\x8d\xfb\xc7\x89'
p1180
bsVevent
p1181
VA random name has been assigned to the new survivor due to user preference.
p1182
sVly
p1183
I0
sa(dp1184
Vevent_type
p1185
NsVcreated_by
p1186
g15
(g16
g17
Ntp1187
Rp1188
S'Xk\xd1\x9aJ\xf5\xca\x13\xb3\x1a%\xce'
p1189
bsVcreated_on
p1190
g10
(S'\x07\xe1\x01\x03\x0c\x126\n90'
p1191
tp1192
Rp1193
sVsettlement_id
p1194
g15
(g16
g17
Ntp1195
Rp1196
S'Xk\xeb\x0eJ\xf5\xca\x17\x8d\xfb\xc7\x85'
p1197
bsV_id
p1198
g15
(g16
g17
Ntp1199
Rp1200
S'Xk\xeb\x0eJ\xf5\xca\x17\x8d\xfb\xc7\x8b'
p1201
bsVevent
p1202
VAutomatically adding 1 survival to Oliver
p1203
sVly
p1204
I0
sa(dp1205
Vevent_type
p1206
NsVcreated_by
p1207
g15
(g16
g17
Ntp1208
Rp1209
S'Xk\xd1\x9aJ\xf5\xca\x13\xb3\x1a%\xce'
p1210
bsVcreated_on
p1211
g10
(S'\x07\xe1\x01\x03\x0c\x126\n=\x18'
p1212
tp1213
Rp1214
sVsettlement_id
p1215
g15
(g16
g17
Ntp1216
Rp1217
S'Xk\xeb\x0eJ\xf5\xca\x17\x8d\xfb\xc7\x85'
p1218
bsV_id
p1219
g15
(g16
g17
Ntp1220
Rp1221
S'Xk\xeb\x0eJ\xf5\xca\x17\x8d\xfb\xc7\x8c'
p1222
bsVevent
p1223
VAutomatically changed population from 0 to 1
p1224
sVly
p1225
I0
sa(dp1226
Vevent_type
p1227
NsVcreated_by
p1228
g15
(g16
g17
Ntp1229
Rp1230
S'Xk\xd1\x9aJ\xf5\xca\x13\xb3\x1a%\xce'
p1231
bsVcreated_on
p1232
g10
(S'\x07\xe1\x01\x03\x0c\x126\nh\x10'
p1233
tp1234
Rp1235
sVsettlement_id
p1236
g15
(g16
g17
Ntp1237
Rp1238
S'Xk\xeb\x0eJ\xf5\xca\x17\x8d\xfb\xc7\x85'
p1239
bsV_id
p1240
g15
(g16
g17
Ntp1241
Rp1242
S'Xk\xeb\x0eJ\xf5\xca\x17\x8d\xfb\xc7\x8d'
p1243
bsVevent
p1244
VOliver [M] has joined the hunting party.
p1245
sVly
p1246
I0
sa(dp1247
Vevent_type
p1248
NsVcreated_by
p1249
g15
(g16
g17
Ntp1250
Rp1251
S'Xk\xd1\x9aJ\xf5\xca\x13\xb3\x1a%\xce'
p1252
bsVcreated_on
p1253
g10
(S'\x07\xe1\x01\x03\x0c\x126\nk\xf8'
p1254
tp1255
Rp1256
sVsettlement_id
p1257
g15
(g16
g17
Ntp1258
Rp1259
S'Xk\xeb\x0eJ\xf5\xca\x17\x8d\xfb\xc7\x85'
p1260
bsV_id
p1261
g15
(g16
g17
Ntp1262
Rp1263
S'Xk\xeb\x0eJ\xf5\xca\x17\x8d\xfb\xc7\x8e'
p1264
bsVevent
p1265
Vqa@kdm-manager.com is adding a new survivor to the settlement!
p1266
sVly
p1267
I0
sa(dp1268
Vevent_type
p1269
NsVcreated_by
p1270
g15
(g16
g17
Ntp1271
Rp1272
S'Xk\xd1\x9aJ\xf5\xca\x13\xb3\x1a%\xce'
p1273
bsVcreated_on
p1274
g10
(S'\x07\xe1\x01\x03\x0c\x126\no\xe0'
p1275
tp1276
Rp1277
sVsettlement_id
p1278
g15
(g16
g17
Ntp1279
Rp1280
S'Xk\xeb\x0eJ\xf5\xca\x17\x8d\xfb\xc7\x85'
p1281
bsV_id
p1282
g15
(g16
g17
Ntp1283
Rp1284
S'Xk\xeb\x0eJ\xf5\xca\x17\x8d\xfb\xc7\x8f'
p1285
bsVevent
p1286
VA random name has been assigned to the new survivor due to user preference.
p1287
sVly
p1288
I0
sa(dp1289
Vevent_type
p1290
NsVcreated_by
p1291
g15
(g16
g17
Ntp1292
Rp1293
S'Xk\xd1\x9aJ\xf5\xca\x13\xb3\x1a%\xce'
p1294
bsVcreated_on
p1295
g10
(S'\x07\xe1\x01\x03\x0c\x126\ns\xc8'
p1296
tp1297
Rp1298
sVsettlement_id
p1299
g15
(g16
g17
Ntp1300
Rp1301
S'Xk\xeb\x0eJ\xf5\xca\x17\x8d\xfb\xc7\x85'
p1302
bsV_id
p1303
g15
(g16
g17
Ntp1304
Rp1305
S'Xk\xeb\x0eJ\xf5\xca\x17\x8d\xfb\xc7\x91'
p1306
bsVevent
p1307
VAutomatically adding 1 survival to Rashad
p1308
sVly
p1309
I0
sa(dp1310
Vevent_type
p1311
NsVcreated_by
p1312
g15
(g16
g17
Ntp1313
Rp1314
S'Xk\xd1\x9aJ\xf5\xca\x13\xb3\x1a%\xce'
p1315
bsVcreated_on
p1316
g10
(S'\x07\xe1\x01\x03\x0c\x126\nw\xb0'
p1317
tp1318
Rp1319
sVsettlement_id
p1320
g15
(g16
g17
Ntp1321
Rp1322
S'Xk\xeb\x0eJ\xf5\xca\x17\x8d\xfb\xc7\x85'
p1323
bsV_id
p1324
g15
(g16
g17
Ntp1325
Rp1326
S'Xk\xeb\x0eJ\xf5\xca\x17\x8d\xfb\xc7\x92'
p1327
bsVevent
p1328
VAutomatically changed population from 1 to 2
p1329
sVly
p1330
I0
sa(dp1331
Vevent_type
p1332
NsVcreated_by
p1333
g15
(g16
g17
Ntp1334
Rp1335
S'Xk\xd1\x9aJ\xf5\xca\x13\xb3\x1a%\xce'
p1336
bsVcreated_on
p1337
g10
(S'\x07\xe1\x01\x03\x0c\x126\n\x9e\xc0'
p1338
tp1339
Rp1340
sVsettlement_id
p1341
g15
(g16
g17
Ntp1342
Rp1343
S'Xk\xeb\x0eJ\xf5\xca\x17\x8d\xfb\xc7\x85'
p1344
bsV_id
p1345
g15
(g16
g17
Ntp1346
Rp1347
S'Xk\xeb\x0eJ\xf5\xca\x17\x8d\xfb\xc7\x93'
p1348
bsVevent
p1349
VRashad [M] has joined the hunting party.
p1350
sVly
p1351
I0
sa(dp1352
Vevent_type
p1353
NsVcreated_by
p1354
g15
(g16
g17
Ntp1355
Rp1356
S'Xk\xd1\x9aJ\xf5\xca\x13\xb3\x1a%\xce'
p1357
bsVcreated_on
p1358
g10
(S'\x07\xe1\x01\x03\x0c\x126\n\xa2\xa8'
p1359
tp1360
Rp1361
sVsettlement_id
p1362
g15
(g16
g17
Ntp1363
Rp1364
S'Xk\xeb\x0eJ\xf5\xca\x17\x8d\xfb\xc7\x85'
p1365
bsV_id
p1366
g15
(g16
g17
Ntp1367
Rp1368
S'Xk\xeb\x0eJ\xf5\xca\x17\x8d\xfb\xc7\x94'
p1369
bsVevent
p1370
Vqa@kdm-manager.com is adding a new survivor to the settlement!
p1371
sVly
p1372
I0
sa(dp1373
Vevent_type
p1374
NsVcreated_by
p1375
g15
(g16
g17
Ntp1376
Rp1377
S'Xk\xd1\x9aJ\xf5\xca\x13\xb3\x1a%\xce'
p1378
bsVcreated_on
p1379
g10
(S'\x07\xe1\x01\x03\x0c\x126\n\xa6\x90'
p1380
tp1381
Rp1382
sVsettlement_id
p1383
g15
(g16
g17
Ntp1384
Rp1385
S'Xk\xeb\x0eJ\xf5\xca\x17\x8d\xfb\xc7\x85'
p1386
bsV_id
p1387
g15
(g16
g17
Ntp1388
Rp1389
S'Xk\xeb\x0eJ\xf5\xca\x17\x8d\xfb\xc7\x95'
p1390
bsVevent
p1391
VA random name has been assigned to the new survivor due to user preference.
p1392
sVly
p1393
I0
sa(dp1394
Vevent_type
p1395
NsVcreated_by
p1396
g15
(g16
g17
Ntp1397
Rp1398
S'Xk\xd1\x9aJ\xf5\xca\x13\xb3\x1a%\xce'
p1399
bsVcreated_on
p1400
g10
(S'\x07\xe1\x01\x03\x0c\x126\n\xaax'
p1401
tp1402
Rp1403
sVsettlement_id
p1404
g15
(g16
g17
Ntp1405
Rp1406
S'Xk\xeb\x0eJ\xf5\xca\x17\x8d\xfb\xc7\x85'
p1407
bsV_id
p1408
g15
(g16
g17
Ntp1409
Rp1410
S'Xk\xeb\x0eJ\xf5\xca\x17\x8d\xfb\xc7\x97'
p1411
bsVevent
p1412
VAutomatically adding 1 survival to Maleficent
p1413
sVly
p1414
I0
sa(dp1415
Vevent_type
p1416
NsVcreated_by
p1417
g15
(g16
g17
Ntp1418
Rp1419
S'Xk\xd1\x9aJ\xf5\xca\x13\xb3\x1a%\xce'
p1420
bsVcreated_on
p1421
g10
(S'\x07\xe1\x01\x03\x0c\x126\n\xb2H'
p1422
tp1423
Rp1424
sVsettlement_id
p1425
g15
(g16
g17
Ntp1426
Rp1427
S'Xk\xeb\x0eJ\xf5\xca\x17\x8d\xfb\xc7\x85'
p1428
bsV_id
p1429
g15
(g16
g17
Ntp1430
Rp1431
S'Xk\xeb\x0eJ\xf5\xca\x17\x8d\xfb\xc7\x98'
p1432
bsVevent
p1433
VAutomatically changed population from 2 to 3
p1434
sVly
p1435
I0
sa(dp1436
Vevent_type
p1437
NsVcreated_by
p1438
g15
(g16
g17
Ntp1439
Rp1440
S'Xk\xd1\x9aJ\xf5\xca\x13\xb3\x1a%\xce'
p1441
bsVcreated_on
p1442
g10
(S'\x07\xe1\x01\x03\x0c\x126\n\xd5p'
p1443
tp1444
Rp1445
sVsettlement_id
p1446
g15
(g16
g17
Ntp1447
Rp1448
S'Xk\xeb\x0eJ\xf5\xca\x17\x8d\xfb\xc7\x85'
p1449
bsV_id
p1450
g15
(g16
g17
Ntp1451
Rp1452
S'Xk\xeb\x0eJ\xf5\xca\x17\x8d\xfb\xc7\x99'
p1453
bsVevent
p1454
VMaleficent [F] has joined the hunting party.
p1455
sVly
p1456
I0
sa(dp1457
Vevent_type
p1458
NsVcreated_by
p1459
g15
(g16
g17
Ntp1460
Rp1461
S'Xk\xd1\x9aJ\xf5\xca\x13\xb3\x1a%\xce'
p1462
bsVcreated_on
p1463
g10
(S'\x07\xe1\x01\x03\x0c\x126\n\xdd@'
p1464
tp1465
Rp1466
sVsettlement_id
p1467
g15
(g16
g17
Ntp1468
Rp1469
S'Xk\xeb\x0eJ\xf5\xca\x17\x8d\xfb\xc7\x85'
p1470
bsV_id
p1471
g15
(g16
g17
Ntp1472
Rp1473
S'Xk\xeb\x0eJ\xf5\xca\x17\x8d\xfb\xc7\x9a'
p1474
bsVevent
p1475
Vqa@kdm-manager.com is adding a new survivor to the settlement!
p1476
sVly
p1477
I0
sa(dp1478
Vevent_type
p1479
NsVcreated_by
p1480
g15
(g16
g17
Ntp1481
Rp1482
S'Xk\xd1\x9aJ\xf5\xca\x13\xb3\x1a%\xce'
p1483
bsVcreated_on
p1484
g10
(S'\x07\xe1\x01\x03\x0c\x126\n\xdd@'
p1485
tp1486
Rp1487
sVsettlement_id
p1488
g15
(g16
g17
Ntp1489
Rp1490
S'Xk\xeb\x0eJ\xf5\xca\x17\x8d\xfb\xc7\x85'
p1491
bsV_id
p1492
g15
(g16
g17
Ntp1493
Rp1494
S'Xk\xeb\x0eJ\xf5\xca\x17\x8d\xfb\xc7\x9b'
p1495
bsVevent
p1496
VA random name has been assigned to the new survivor due to user preference.
p1497
sVly
p1498
I0
sa(dp1499
Vevent_type
p1500
NsVcreated_by
p1501
g15
(g16
g17
Ntp1502
Rp1503
S'Xk\xd1\x9aJ\xf5\xca\x13\xb3\x1a%\xce'
p1504
bsVcreated_on
p1505
g10
(S'\x07\xe1\x01\x03\x0c\x126\n\xe5\x10'
p1506
tp1507
Rp1508
sVsettlement_id
p1509
g15
(g16
g17
Ntp1510
Rp1511
S'Xk\xeb\x0eJ\xf5\xca\x17\x8d\xfb\xc7\x85'
p1512
bsV_id
p1513
g15
(g16
g17
Ntp1514
Rp1515
S'Xk\xeb\x0eJ\xf5\xca\x17\x8d\xfb\xc7\x9d'
p1516
bsVevent
p1517
VAutomatically adding 1 survival to Elena
p1518
sVly
p1519
I0
sa(dp1520
Vevent_type
p1521
NsVcreated_by
p1522
g15
(g16
g17
Ntp1523
Rp1524
S'Xk\xd1\x9aJ\xf5\xca\x13\xb3\x1a%\xce'
p1525
bsVcreated_on
p1526
g10
(S'\x07\xe1\x01\x03\x0c\x126\n\xe8\xf8'
p1527
tp1528
Rp1529
sVsettlement_id
p1530
g15
(g16
g17
Ntp1531
Rp1532
S'Xk\xeb\x0eJ\xf5\xca\x17\x8d\xfb\xc7\x85'
p1533
bsV_id
p1534
g15
(g16
g17
Ntp1535
Rp1536
S'Xk\xeb\x0eJ\xf5\xca\x17\x8d\xfb\xc7\x9e'
p1537
bsVevent
p1538
VAutomatically changed population from 3 to 4
p1539
sVly
p1540
I0
sa(dp1541
Vevent_type
p1542
NsVcreated_by
p1543
g15
(g16
g17
Ntp1544
Rp1545
S'Xk\xd1\x9aJ\xf5\xca\x13\xb3\x1a%\xce'
p1546
bsVcreated_on
p1547
g10
(S'\x07\xe1\x01\x03\x0c\x126\x0b\x10\x08'
p1548
tp1549
Rp1550
sVsettlement_id
p1551
g15
(g16
g17
Ntp1552
Rp1553
S'Xk\xeb\x0eJ\xf5\xca\x17\x8d\xfb\xc7\x85'
p1554
bsV_id
p1555
g15
(g16
g17
Ntp1556
Rp1557
S'Xk\xeb\x0eJ\xf5\xca\x17\x8d\xfb\xc7\x9f'
p1558
bsVevent
p1559
VElena [F] has joined the hunting party.
p1560
sVly
p1561
I0
sa(dp1562
Vevent_type
p1563
NsVcreated_by
p1564
g15
(g16
g17
Ntp1565
Rp1566
S'Xk\xd1\x9aJ\xf5\xca\x13\xb3\x1a%\xce'
p1567
bsVcreated_on
p1568
g10
(S'\x07\xe1\x01\x03\x0c\x126\x0b\x10\x08'
p1569
tp1570
Rp1571
sVsettlement_id
p1572
g15
(g16
g17
Ntp1573
Rp1574
S'Xk\xeb\x0eJ\xf5\xca\x17\x8d\xfb\xc7\x85'
p1575
bsV_id
p1576
g15
(g16
g17
Ntp1577
Rp1578
S'Xk\xeb\x0eJ\xf5\xca\x17\x8d\xfb\xc7\xa0'
p1579
bsVevent
p1580
VAdded four new survivors and Starting Gear to settlement storage
p1581
sVly
p1582
I0
sa(dp1583
Vevent_type
p1584
NsVcreated_by
p1585
g15
(g16
g17
Ntp1586
Rp1587
S'Xk\xd1\x9aJ\xf5\xca\x13\xb3\x1a%\xce'
p1588
bsVcreated_on
p1589
g10
(S'\x07\xe1\x01\x03\x0c\x126\x0b\x13\xf0'
p1590
tp1591
Rp1592
sVsettlement_id
p1593
g15
(g16
g17
Ntp1594
Rp1595
S'Xk\xeb\x0eJ\xf5\xca\x17\x8d\xfb\xc7\x85'
p1596
bsV_id
p1597
g15
(g16
g17
Ntp1598
Rp1599
S'Xk\xeb\x0eJ\xf5\xca\x17\x8d\xfb\xc7\xa1'
p1600
bsVevent
p1601
VCurrent quarry is White Lion (First Story)
p1602
sVly
p1603
I0
sa(dp1604
Vevent_type
p1605
NsVcreated_by
p1606
g15
(g16
g17
Ntp1607
Rp1608
S'Xk\xd1\x9aJ\xf5\xca\x13\xb3\x1a%\xce'
p1609
bsVcreated_on
p1610
g10
(S'\x07\xe1\x01\x03\x0c\x126\r\x13\xa8'
p1611
tp1612
Rp1613
sVsettlement_id
p1614
g15
(g16
g17
Ntp1615
Rp1616
S'Xk\xeb\x0eJ\xf5\xca\x17\x8d\xfb\xc7\x85'
p1617
bsV_id
p1618
g15
(g16
g17
Ntp1619
Rp1620
S'Xk\xeb\x0eJ\xf5\xca\x17\x8d\xfb\xc7\xa2'
p1621
bsVevent
p1622
VHaven founded!
p1623
sVly
p1624
I0
sa(dp1625
Vevent_type
p1626
NsVcreated_by
p1627
g15
(g16
g17
Ntp1628
Rp1629
S'Xk\xd1\x9aJ\xf5\xca\x13\xb3\x1a%\xce'
p1630
bsVcreated_on
p1631
g10
(S'\x07\xe1\x01\x03\x0c\x126\r\x1bx'
p1632
tp1633
Rp1634
sVsettlement_id
p1635
g15
(g16
g17
Ntp1636
Rp1637
S'Xk\xeb\x0eJ\xf5\xca\x17\x8d\xfb\xc7\x85'
p1638
bsV_id
p1639
g15
(g16
g17
Ntp1640
Rp1641
S'Xk\xeb\x0eJ\xf5\xca\x17\x8d\xfb\xc7\xa3'
p1642
bsVevent
p1643
VAutomatically changed population from 0 to 4
p1644
sVly
p1645
I0
sa(dp1646
Vevent_type
p1647
NsVcreated_by
p1648
g15
(g16
g17
Ntp1649
Rp1650
S'Xk\xd1\x9aJ\xf5\xca\x13\xb3\x1a%\xce'
p1651
bsVcreated_on
p1652
g10
(S'\x07\xe1\x01\x03\r\x000\x08\xcd\xe8'
p1653
tp1654
Rp1655
sVsettlement_id
p1656
g15
(g16
g17
Ntp1657
Rp1658
S'Xk\xeb\x0eJ\xf5\xca\x17\x8d\xfb\xc7\x85'
p1659
bsV_id
p1660
g15
(g16
g17
Ntp1661
Rp1662
S'Xk\xf4\xe0J\xf5\xca\x19q|ix'
p1663
bsVevent
p1664
Vqa@kdm-manager.com removed 1 'Founding Stone' item(s) from settlement storage.
p1665
sVly
p1666
I0
sa(dp1667
Vevent_type
p1668
NsVcreated_by
p1669
g15
(g16
g17
Ntp1670
Rp1671
S'Xk\xd1\x9aJ\xf5\xca\x13\xb3\x1a%\xce'
p1672
bsVcreated_on
p1673
g10
(S'\x07\xe1\x01\x03\r\x016\x03\x1c\xe0'
p1674
tp1675
Rp1676
sVsettlement_id
p1677
g15
(g16
g17
Ntp1678
Rp1679
S'Xk\xeb\x0eJ\xf5\xca\x17\x8d\xfb\xc7\x85'
p1680
bsV_id
p1681
g15
(g16
g17
Ntp1682
Rp1683
S'Xk\xf5"J\xf5\xca\x19\xa2\x11k\x1b'
p1684
bsVevent
p1685
Vqa@kdm-manager.com removed 1 'Founding Stone' item(s) from settlement storage.
p1686
sVly
p1687
I0
sa(dp1688
Vevent_type
p1689
NsVcreated_by
p1690
g15
(g16
g17
Ntp1691
Rp1692
S'Xk\xd1\x9aJ\xf5\xca\x13\xb3\x1a%\xce'
p1693
bsVcreated_on
p1694
g10
(S'\x07\xe1\x01\x03\r\x05\x1f\n\xb60'
p1695
tp1696
Rp1697
sVsettlement_id
p1698
g15
(g16
g17
Ntp1699
Rp1700
S'Xk\xeb\x0eJ\xf5\xca\x17\x8d\xfb\xc7\x85'
p1701
bsV_id
p1702
g15
(g16
g17
Ntp1703
Rp1704
S'Xk\xf5\xfbJ\xf5\xca\x19\xeb\xc4\xe8\x8b'
p1705
bsVevent
p1706
VWhite Lion (First Story) defeated!
p1707
sVly
p1708
I0
sa(dp1709
Vevent_type
p1710
NsVcreated_by
p1711
g15
(g16
g17
Ntp1712
Rp1713
S'Xk\xd1\x9aJ\xf5\xca\x13\xb3\x1a%\xce'
p1714
bsVcreated_on
p1715
g10
(S'\x07\xe1\x01\x03\r\x05\x1f\x0c\xb2\x00'
p1716
tp1717
Rp1718
sVsettlement_id
p1719
g15
(g16
g17
Ntp1720
Rp1721
S'Xk\xeb\x0eJ\xf5\xca\x17\x8d\xfb\xc7\x85'
p1722
bsV_id
p1723
g15
(g16
g17
Ntp1724
Rp1725
S'Xk\xf5\xfbJ\xf5\xca\x19\xeb\xc4\xe8\x8c'
p1726
bsVevent
p1727
VAutomatically set endeavor tokens to 4
p1728
sVly
p1729
I0
sa(dp1730
Vevent_type
p1731
NsVcreated_by
p1732
g15
(g16
g17
Ntp1733
Rp1734
S'Xk\xd1\x9aJ\xf5\xca\x13\xb3\x1a%\xce'
p1735
bsVcreated_on
p1736
g10
(S'\x07\xe1\x01\x03\r\x05\x1f\x0c\xb5\xe8'
p1737
tp1738
Rp1739
sVsettlement_id
p1740
g15
(g16
g17
Ntp1741
Rp1742
S'Xk\xeb\x0eJ\xf5\xca\x17\x8d\xfb\xc7\x85'
p1743
bsV_id
p1744
g15
(g16
g17
Ntp1745
Rp1746
S'Xk\xf5\xfbJ\xf5\xca\x19\xeb\xc4\xe8\x8d'
p1747
bsVevent
p1748
VDeparting Survivors (Elena, Maleficent, Oliver, Rashad) have returned in victory!
p1749
sVly
p1750
I0
sa(dp1751
Vevent_type
p1752
NsVcreated_by
p1753
g15
(g16
g17
Ntp1754
Rp1755
S'Xk\xd1\x9aJ\xf5\xca\x13\xb3\x1a%\xce'
p1756
bsVcreated_on
p1757
g10
(S'\x07\xe1\x01\x03\r\x07\x19\x05\x9d\x80'
p1758
tp1759
Rp1760
sVsettlement_id
p1761
g15
(g16
g17
Ntp1762
Rp1763
S'Xk\xeb\x0eJ\xf5\xca\x17\x8d\xfb\xc7\x85'
p1764
bsV_id
p1765
g15
(g16
g17
Ntp1766
Rp1767
S'Xk\xf6mJ\xf5\xca\x19\xf5\xc8\xa3h'
p1768
bsVevent
p1769
Vqa@kdm-manager.com is adding a new survivor to the settlement!
p1770
sVly
p1771
I0
sa(dp1772
Vevent_type
p1773
NsVcreated_by
p1774
g15
(g16
g17
Ntp1775
Rp1776
S'Xk\xd1\x9aJ\xf5\xca\x13\xb3\x1a%\xce'
p1777
bsVcreated_on
p1778
g10
(S'\x07\xe1\x01\x03\r\x07\x19\x05\xa1h'
p1779
tp1780
Rp1781
sVsettlement_id
p1782
g15
(g16
g17
Ntp1783
Rp1784
S'Xk\xeb\x0eJ\xf5\xca\x17\x8d\xfb\xc7\x85'
p1785
bsV_id
p1786
g15
(g16
g17
Ntp1787
Rp1788
S'Xk\xf6mJ\xf5\xca\x19\xf5\xc8\xa3i'
p1789
bsVevent
p1790
VA random name has been assigned to the new survivor due to user preference.
p1791
sVly
p1792
I0
sa(dp1793
Vevent_type
p1794
NsVcreated_by
p1795
g15
(g16
g17
Ntp1796
Rp1797
S'Xk\xd1\x9aJ\xf5\xca\x13\xb3\x1a%\xce'
p1798
bsVcreated_on
p1799
g10
(S'\x07\xe1\x01\x03\r\x07\x19\x05\xa5P'
p1800
tp1801
Rp1802
sVsettlement_id
p1803
g15
(g16
g17
Ntp1804
Rp1805
S'Xk\xeb\x0eJ\xf5\xca\x17\x8d\xfb\xc7\x85'
p1806
bsV_id
p1807
g15
(g16
g17
Ntp1808
Rp1809
S'Xk\xf6mJ\xf5\xca\x19\xf5\xc8\xa3k'
p1810
bsVevent
p1811
VAutomatically adding 1 survival to Fester
p1812
sVly
p1813
I0
sa(dp1814
Vevent_type
p1815
NsVcreated_by
p1816
g15
(g16
g17
Ntp1817
Rp1818
S'Xk\xd1\x9aJ\xf5\xca\x13\xb3\x1a%\xce'
p1819
bsVcreated_on
p1820
g10
(S'\x07\xe1\x01\x03\r\x07\x19\x05\xb4\xf0'
p1821
tp1822
Rp1823
sVsettlement_id
p1824
g15
(g16
g17
Ntp1825
Rp1826
S'Xk\xeb\x0eJ\xf5\xca\x17\x8d\xfb\xc7\x85'
p1827
bsV_id
p1828
g15
(g16
g17
Ntp1829
Rp1830
S'Xk\xf6mJ\xf5\xca\x19\xf5\xc8\xa3l'
p1831
bsVevent
p1832
Vqa@kdm-manager.com is adding a new survivor to the settlement!
p1833
sVly
p1834
I0
sa(dp1835
Vevent_type
p1836
NsVcreated_by
p1837
g15
(g16
g17
Ntp1838
Rp1839
S'Xk\xd1\x9aJ\xf5\xca\x13\xb3\x1a%\xce'
p1840
bsVcreated_on
p1841
g10
(S'\x07\xe1\x01\x03\r\x07\x19\x05\xb8\xd8'
p1842
tp1843
Rp1844
sVsettlement_id
p1845
g15
(g16
g17
Ntp1846
Rp1847
S'Xk\xeb\x0eJ\xf5\xca\x17\x8d\xfb\xc7\x85'
p1848
bsV_id
p1849
g15
(g16
g17
Ntp1850
Rp1851
S'Xk\xf6mJ\xf5\xca\x19\xf5\xc8\xa3m'
p1852
bsVevent
p1853
VA random name has been assigned to the new survivor due to user preference.
p1854
sVly
p1855
I0
sa(dp1856
Vevent_type
p1857
NsVcreated_by
p1858
g15
(g16
g17
Ntp1859
Rp1860
S'Xk\xd1\x9aJ\xf5\xca\x13\xb3\x1a%\xce'
p1861
bsVcreated_on
p1862
g10
(S'\x07\xe1\x01\x03\r\x07\x19\x05\xbc\xc0'
p1863
tp1864
Rp1865
sVsettlement_id
p1866
g15
(g16
g17
Ntp1867
Rp1868
S'Xk\xeb\x0eJ\xf5\xca\x17\x8d\xfb\xc7\x85'
p1869
bsV_id
p1870
g15
(g16
g17
Ntp1871
Rp1872
S'Xk\xf6mJ\xf5\xca\x19\xf5\xc8\xa3o'
p1873
bsVevent
p1874
VAutomatically adding 1 survival to Hipolito
p1875
sVly
p1876
I0
sa(dp1877
Vevent_type
p1878
NsVcreated_by
p1879
g15
(g16
g17
Ntp1880
Rp1881
S'Xk\xd1\x9aJ\xf5\xca\x13\xb3\x1a%\xce'
p1882
bsVcreated_on
p1883
g10
(S'\x07\xe1\x01\x03\r\x07\x19\x05\xcc`'
p1884
tp1885
Rp1886
sVsettlement_id
p1887
g15
(g16
g17
Ntp1888
Rp1889
S'Xk\xeb\x0eJ\xf5\xca\x17\x8d\xfb\xc7\x85'
p1890
bsV_id
p1891
g15
(g16
g17
Ntp1892
Rp1893
S'Xk\xf6mJ\xf5\xca\x19\xf5\xc8\xa3p'
p1894
bsVevent
p1895
Vqa@kdm-manager.com is adding a new survivor to the settlement!
p1896
sVly
p1897
I0
sa(dp1898
Vevent_type
p1899
NsVcreated_by
p1900
g15
(g16
g17
Ntp1901
Rp1902
S'Xk\xd1\x9aJ\xf5\xca\x13\xb3\x1a%\xce'
p1903
bsVcreated_on
p1904
g10
(S'\x07\xe1\x01\x03\r\x07\x19\x05\xcc`'
p1905
tp1906
Rp1907
sVsettlement_id
p1908
g15
(g16
g17
Ntp1909
Rp1910
S'Xk\xeb\x0eJ\xf5\xca\x17\x8d\xfb\xc7\x85'
p1911
bsV_id
p1912
g15
(g16
g17
Ntp1913
Rp1914
S'Xk\xf6mJ\xf5\xca\x19\xf5\xc8\xa3q'
p1915
bsVevent
p1916
VA random name has been assigned to the new survivor due to user preference.
p1917
sVly
p1918
I0
sa(dp1919
Vevent_type
p1920
NsVcreated_by
p1921
g15
(g16
g17
Ntp1922
Rp1923
S'Xk\xd1\x9aJ\xf5\xca\x13\xb3\x1a%\xce'
p1924
bsVcreated_on
p1925
g10
(S'\x07\xe1\x01\x03\r\x07\x19\x05\xd0H'
p1926
tp1927
Rp1928
sVsettlement_id
p1929
g15
(g16
g17
Ntp1930
Rp1931
S'Xk\xeb\x0eJ\xf5\xca\x17\x8d\xfb\xc7\x85'
p1932
bsV_id
p1933
g15
(g16
g17
Ntp1934
Rp1935
S'Xk\xf6mJ\xf5\xca\x19\xf5\xc8\xa3s'
p1936
bsVevent
p1937
VAutomatically adding 1 survival to Brooks
p1938
sVly
p1939
I0
sa(dp1940
Vevent_type
p1941
NsVcreated_by
p1942
g15
(g16
g17
Ntp1943
Rp1944
S'Xk\xd1\x9aJ\xf5\xca\x13\xb3\x1a%\xce'
p1945
bsVcreated_on
p1946
g10
(S'\x07\xe1\x01\x03\r\x07\x19\x05\xdf\xe8'
p1947
tp1948
Rp1949
sVsettlement_id
p1950
g15
(g16
g17
Ntp1951
Rp1952
S'Xk\xeb\x0eJ\xf5\xca\x17\x8d\xfb\xc7\x85'
p1953
bsV_id
p1954
g15
(g16
g17
Ntp1955
Rp1956
S'Xk\xf6mJ\xf5\xca\x19\xf5\xc8\xa3t'
p1957
bsVevent
p1958
Vqa@kdm-manager.com is adding a new survivor to the settlement!
p1959
sVly
p1960
I0
sa(dp1961
Vevent_type
p1962
NsVcreated_by
p1963
g15
(g16
g17
Ntp1964
Rp1965
S'Xk\xd1\x9aJ\xf5\xca\x13\xb3\x1a%\xce'
p1966
bsVcreated_on
p1967
g10
(S'\x07\xe1\x01\x03\r\x07\x19\x05\xdf\xe8'
p1968
tp1969
Rp1970
sVsettlement_id
p1971
g15
(g16
g17
Ntp1972
Rp1973
S'Xk\xeb\x0eJ\xf5\xca\x17\x8d\xfb\xc7\x85'
p1974
bsV_id
p1975
g15
(g16
g17
Ntp1976
Rp1977
S'Xk\xf6mJ\xf5\xca\x19\xf5\xc8\xa3u'
p1978
bsVevent
p1979
VA random name has been assigned to the new survivor due to user preference.
p1980
sVly
p1981
I0
sa(dp1982
Vevent_type
p1983
NsVcreated_by
p1984
g15
(g16
g17
Ntp1985
Rp1986
S'Xk\xd1\x9aJ\xf5\xca\x13\xb3\x1a%\xce'
p1987
bsVcreated_on
p1988
g10
(S'\x07\xe1\x01\x03\r\x07\x19\x05\xe7\xb8'
p1989
tp1990
Rp1991
sVsettlement_id
p1992
g15
(g16
g17
Ntp1993
Rp1994
S'Xk\xeb\x0eJ\xf5\xca\x17\x8d\xfb\xc7\x85'
p1995
bsV_id
p1996
g15
(g16
g17
Ntp1997
Rp1998
S'Xk\xf6mJ\xf5\xca\x19\xf5\xc8\xa3w'
p1999
bsVevent
p2000
VAutomatically adding 1 survival to Killian
p2001
sVly
p2002
I0
sa(dp2003
Vevent_type
p2004
NsVcreated_by
p2005
g15
(g16
g17
Ntp2006
Rp2007
S'Xk\xd1\x9aJ\xf5\xca\x13\xb3\x1a%\xce'
p2008
bsVcreated_on
p2009
g10
(S'\x07\xe1\x01\x03\r\x07\x19\x05\xf3p'
p2010
tp2011
Rp2012
sVsettlement_id
p2013
g15
(g16
g17
Ntp2014
Rp2015
S'Xk\xeb\x0eJ\xf5\xca\x17\x8d\xfb\xc7\x85'
p2016
bsV_id
p2017
g15
(g16
g17
Ntp2018
Rp2019
S'Xk\xf6mJ\xf5\xca\x19\xf5\xc8\xa3x'
p2020
bsVevent
p2021
Vqa@kdm-manager.com is adding a new survivor to the settlement!
p2022
sVly
p2023
I0
sa(dp2024
Vevent_type
p2025
NsVcreated_by
p2026
g15
(g16
g17
Ntp2027
Rp2028
S'Xk\xd1\x9aJ\xf5\xca\x13\xb3\x1a%\xce'
p2029
bsVcreated_on
p2030
g10
(S'\x07\xe1\x01\x03\r\x07\x19\x05\xf7X'
p2031
tp2032
Rp2033
sVsettlement_id
p2034
g15
(g16
g17
Ntp2035
Rp2036
S'Xk\xeb\x0eJ\xf5\xca\x17\x8d\xfb\xc7\x85'
p2037
bsV_id
p2038
g15
(g16
g17
Ntp2039
Rp2040
S'Xk\xf6mJ\xf5\xca\x19\xf5\xc8\xa3y'
p2041
bsVevent
p2042
VA random name has been assigned to the new survivor due to user preference.
p2043
sVly
p2044
I0
sa(dp2045
Vevent_type
p2046
NsVcreated_by
p2047
g15
(g16
g17
Ntp2048
Rp2049
S'Xk\xd1\x9aJ\xf5\xca\x13\xb3\x1a%\xce'
p2050
bsVcreated_on
p2051
g10
(S'\x07\xe1\x01\x03\r\x07\x19\x05\xfb@'
p2052
tp2053
Rp2054
sVsettlement_id
p2055
g15
(g16
g17
Ntp2056
Rp2057
S'Xk\xeb\x0eJ\xf5\xca\x17\x8d\xfb\xc7\x85'
p2058
bsV_id
p2059
g15
(g16
g17
Ntp2060
Rp2061
S'Xk\xf6mJ\xf5\xca\x19\xf5\xc8\xa3{'
p2062
bsVevent
p2063
VAutomatically adding 1 survival to Genevieve
p2064
sVly
p2065
I0
sa(dp2066
Vevent_type
p2067
NsVcreated_by
p2068
g15
(g16
g17
Ntp2069
Rp2070
S'Xk\xd1\x9aJ\xf5\xca\x13\xb3\x1a%\xce'
p2071
bsVcreated_on
p2072
g10
(S'\x07\xe1\x01\x03\r\x07\x19\x06\x06\xf8'
p2073
tp2074
Rp2075
sVsettlement_id
p2076
g15
(g16
g17
Ntp2077
Rp2078
S'Xk\xeb\x0eJ\xf5\xca\x17\x8d\xfb\xc7\x85'
p2079
bsV_id
p2080
g15
(g16
g17
Ntp2081
Rp2082
S'Xk\xf6mJ\xf5\xca\x19\xf5\xc8\xa3|'
p2083
bsVevent
p2084
Vqa@kdm-manager.com is adding a new survivor to the settlement!
p2085
sVly
p2086
I0
sa(dp2087
Vevent_type
p2088
NsVcreated_by
p2089
g15
(g16
g17
Ntp2090
Rp2091
S'Xk\xd1\x9aJ\xf5\xca\x13\xb3\x1a%\xce'
p2092
bsVcreated_on
p2093
g10
(S'\x07\xe1\x01\x03\r\x07\x19\x06\n\xe0'
p2094
tp2095
Rp2096
sVsettlement_id
p2097
g15
(g16
g17
Ntp2098
Rp2099
S'Xk\xeb\x0eJ\xf5\xca\x17\x8d\xfb\xc7\x85'
p2100
bsV_id
p2101
g15
(g16
g17
Ntp2102
Rp2103
S'Xk\xf6mJ\xf5\xca\x19\xf5\xc8\xa3}'
p2104
bsVevent
p2105
VA random name has been assigned to the new survivor due to user preference.
p2106
sVly
p2107
I0
sa(dp2108
Vevent_type
p2109
NsVcreated_by
p2110
g15
(g16
g17
Ntp2111
Rp2112
S'Xk\xd1\x9aJ\xf5\xca\x13\xb3\x1a%\xce'
p2113
bsVcreated_on
p2114
g10
(S'\x07\xe1\x01\x03\r\x07\x19\x06\x0e\xc8'
p2115
tp2116
Rp2117
sVsettlement_id
p2118
g15
(g16
g17
Ntp2119
Rp2120
S'Xk\xeb\x0eJ\xf5\xca\x17\x8d\xfb\xc7\x85'
p2121
bsV_id
p2122
g15
(g16
g17
Ntp2123
Rp2124
S'Xk\xf6mJ\xf5\xca\x19\xf5\xc8\xa3\x7f'
p2125
bsVevent
p2126
VAutomatically adding 1 survival to Desdemona
p2127
sVly
p2128
I0
sa(dp2129
Vevent_type
p2130
NsVcreated_by
p2131
g15
(g16
g17
Ntp2132
Rp2133
S'Xk\xd1\x9aJ\xf5\xca\x13\xb3\x1a%\xce'
p2134
bsVcreated_on
p2135
g10
(S'\x07\xe1\x01\x03\r\x07\x19\x06\x1eh'
p2136
tp2137
Rp2138
sVsettlement_id
p2139
g15
(g16
g17
Ntp2140
Rp2141
S'Xk\xeb\x0eJ\xf5\xca\x17\x8d\xfb\xc7\x85'
p2142
bsV_id
p2143
g15
(g16
g17
Ntp2144
Rp2145
S'Xk\xf6mJ\xf5\xca\x19\xf5\xc8\xa3\x80'
p2146
bsVevent
p2147
Vqa@kdm-manager.com is adding a new survivor to the settlement!
p2148
sVly
p2149
I0
sa(dp2150
Vevent_type
p2151
NsVcreated_by
p2152
g15
(g16
g17
Ntp2153
Rp2154
S'Xk\xd1\x9aJ\xf5\xca\x13\xb3\x1a%\xce'
p2155
bsVcreated_on
p2156
g10
(S'\x07\xe1\x01\x03\r\x07\x19\x06\x1eh'
p2157
tp2158
Rp2159
sVsettlement_id
p2160
g15
(g16
g17
Ntp2161
Rp2162
S'Xk\xeb\x0eJ\xf5\xca\x17\x8d\xfb\xc7\x85'
p2163
bsV_id
p2164
g15
(g16
g17
Ntp2165
Rp2166
S'Xk\xf6mJ\xf5\xca\x19\xf5\xc8\xa3\x81'
p2167
bsVevent
p2168
VA random name has been assigned to the new survivor due to user preference.
p2169
sVly
p2170
I0
sa(dp2171
Vevent_type
p2172
NsVcreated_by
p2173
g15
(g16
g17
Ntp2174
Rp2175
S'Xk\xd1\x9aJ\xf5\xca\x13\xb3\x1a%\xce'
p2176
bsVcreated_on
p2177
g10
(S'\x07\xe1\x01\x03\r\x07\x19\x06&8'
p2178
tp2179
Rp2180
sVsettlement_id
p2181
g15
(g16
g17
Ntp2182
Rp2183
S'Xk\xeb\x0eJ\xf5\xca\x17\x8d\xfb\xc7\x85'
p2184
bsV_id
p2185
g15
(g16
g17
Ntp2186
Rp2187
S'Xk\xf6mJ\xf5\xca\x19\xf5\xc8\xa3\x83'
p2188
bsVevent
p2189
VAutomatically adding 1 survival to Diana
p2190
sVly
p2191
I0
sa(dp2192
Vevent_type
p2193
NsVcreated_by
p2194
g15
(g16
g17
Ntp2195
Rp2196
S'Xk\xd1\x9aJ\xf5\xca\x13\xb3\x1a%\xce'
p2197
bsVcreated_on
p2198
g10
(S'\x07\xe1\x01\x03\r\x07\x19\x06x@'
p2199
tp2200
Rp2201
sVsettlement_id
p2202
g15
(g16
g17
Ntp2203
Rp2204
S'Xk\xeb\x0eJ\xf5\xca\x17\x8d\xfb\xc7\x85'
p2205
bsV_id
p2206
g15
(g16
g17
Ntp2207
Rp2208
S'Xk\xf6mJ\xf5\xca\x19\xf5\xc8\xa3\x84'
p2209
bsVevent
p2210
Vqa@kdm-manager.com is adding a new survivor to the settlement!
p2211
sVly
p2212
I0
sa(dp2213
Vevent_type
p2214
NsVcreated_by
p2215
g15
(g16
g17
Ntp2216
Rp2217
S'Xk\xd1\x9aJ\xf5\xca\x13\xb3\x1a%\xce'
p2218
bsVcreated_on
p2219
g10
(S'\x07\xe1\x01\x03\r\x07\x19\x06x@'
p2220
tp2221
Rp2222
sVsettlement_id
p2223
g15
(g16
g17
Ntp2224
Rp2225
S'Xk\xeb\x0eJ\xf5\xca\x17\x8d\xfb\xc7\x85'
p2226
bsV_id
p2227
g15
(g16
g17
Ntp2228
Rp2229
S'Xk\xf6mJ\xf5\xca\x19\xf5\xc8\xa3\x85'
p2230
bsVevent
p2231
VA random name has been assigned to the new survivor due to user preference.
p2232
sVly
p2233
I0
sa(dp2234
Vevent_type
p2235
NsVcreated_by
p2236
g15
(g16
g17
Ntp2237
Rp2238
S'Xk\xd1\x9aJ\xf5\xca\x13\xb3\x1a%\xce'
p2239
bsVcreated_on
p2240
g10
(S'\x07\xe1\x01\x03\r\x07\x19\x06\x80\x10'
p2241
tp2242
Rp2243
sVsettlement_id
p2244
g15
(g16
g17
Ntp2245
Rp2246
S'Xk\xeb\x0eJ\xf5\xca\x17\x8d\xfb\xc7\x85'
p2247
bsV_id
p2248
g15
(g16
g17
Ntp2249
Rp2250
S'Xk\xf6mJ\xf5\xca\x19\xf5\xc8\xa3\x87'
p2251
bsVevent
p2252
VAutomatically adding 1 survival to Raina
p2253
sVly
p2254
I0
sa(dp2255
Vevent_type
p2256
NsVcreated_by
p2257
g15
(g16
g17
Ntp2258
Rp2259
S'Xk\xd1\x9aJ\xf5\xca\x13\xb3\x1a%\xce'
p2260
bsVcreated_on
p2261
g10
(S'\x07\xe1\x01\x03\r\x07\x19\x06\x8b\xc8'
p2262
tp2263
Rp2264
sVsettlement_id
p2265
g15
(g16
g17
Ntp2266
Rp2267
S'Xk\xeb\x0eJ\xf5\xca\x17\x8d\xfb\xc7\x85'
p2268
bsV_id
p2269
g15
(g16
g17
Ntp2270
Rp2271
S'Xk\xf6mJ\xf5\xca\x19\xf5\xc8\xa3\x88'
p2272
bsVevent
p2273
Vqa@kdm-manager.com (586bd19a4af5ca13b31a25ce) added 4 male and 4 female survivors to Haven!
p2274
sVly
p2275
I0
sa(dp2276
Vevent_type
p2277
NsVcreated_by
p2278
g15
(g16
g17
Ntp2279
Rp2280
S'Xk\xd1\x9aJ\xf5\xca\x13\xb3\x1a%\xce'
p2281
bsVcreated_on
p2282
g10
(S"\x07\xe1\x01\x03\r\x07\x19\t'\xc0"
p2283
tp2284
Rp2285
sVsettlement_id
p2286
g15
(g16
g17
Ntp2287
Rp2288
S'Xk\xeb\x0eJ\xf5\xca\x17\x8d\xfb\xc7\x85'
p2289
bsV_id
p2290
g15
(g16
g17
Ntp2291
Rp2292
S'Xk\xf6mJ\xf5\xca\x19\xf5\xc8\xa3\x89'
p2293
bsVevent
p2294
VAutomatically changed population from 4 to 12
p2295
sVly
p2296
I0
sa(dp2297
Vevent_type
p2298
NsVcreated_by
p2299
g15
(g16
g17
Ntp2300
Rp2301
S'Xk\xd1\x9aJ\xf5\xca\x13\xb3\x1a%\xce'
p2302
bsVcreated_on
p2303
g10
(S"\x07\xe1\x01\x03\r'0\x07;\x90"
p2304
tp2305
Rp2306
sVsettlement_id
p2307
g15
(g16
g17
Ntp2308
Rp2309
S'Xk\xeb\x0eJ\xf5\xca\x17\x8d\xfb\xc7\x85'
p2310
bsV_id
p2311
g15
(g16
g17
Ntp2312
Rp2313
S'Xk\xfe\x04J\xf5\xca\x1cl5\x86a'
p2314
bsVevent
p2315
VLanguage added to settlement Innovations!
p2316
sVly
p2317
V1
p2318
sa(dp2319
Vevent_type
p2320
NsVcreated_by
p2321
g15
(g16
g17
Ntp2322
Rp2323
S'Xk\xd1\x9aJ\xf5\xca\x13\xb3\x1a%\xce'
p2324
bsVcreated_on
p2325
g10
(S"\x07\xe1\x01\x03\r'0\x07GH"
p2326
tp2327
Rp2328
sVsettlement_id
p2329
g15
(g16
g17
Ntp2330
Rp2331
S'Xk\xeb\x0eJ\xf5\xca\x17\x8d\xfb\xc7\x85'
p2332
bsV_id
p2333
g15
(g16
g17
Ntp2334
Rp2335
S'Xk\xfe\x04J\xf5\xca\x1cl5\x86b'
p2336
bsVevent
p2337
VAutomatically changed survival limit from 1 to 2
p2338
sVly
p2339
V1
p2340
sa(dp2341
Vevent_type
p2342
NsVcreated_by
p2343
g15
(g16
g17
Ntp2344
Rp2345
S'Xk\xd1\x9aJ\xf5\xca\x13\xb3\x1a%\xce'
p2346
bsVcreated_on
p2347
g10
(S'\x07\xe1\x01\x03\r)\x1b\x0c{P'
p2348
tp2349
Rp2350
sVsettlement_id
p2351
g15
(g16
g17
Ntp2352
Rp2353
S'Xk\xeb\x0eJ\xf5\xca\x17\x8d\xfb\xc7\x85'
p2354
bsV_id
p2355
g15
(g16
g17
Ntp2356
Rp2357
S'Xk\xfegJ\xf5\xca\x1c\xcf\xd4#\xe8'
p2358
bsVevent
p2359
Vqa@kdm-manager.com added Lantern Hoard to settlement locations.
p2360
sVly
p2361
V1
p2362
sa(dp2363
Vevent_type
p2364
NsVcreated_by
p2365
g15
(g16
g17
Ntp2366
Rp2367
S'Xk\xd1\x9aJ\xf5\xca\x13\xb3\x1a%\xce'
p2368
bsVcreated_on
p2369
g10
(S'\x07\xe1\x01\x03\r-\x0e\r]\xe0'
p2370
tp2371
Rp2372
sVsettlement_id
p2373
g15
(g16
g17
Ntp2374
Rp2375
S'Xk\xeb\x0eJ\xf5\xca\x17\x8d\xfb\xc7\x85'
p2376
bsV_id
p2377
g15
(g16
g17
Ntp2378
Rp2379
S'Xk\xffJJ\xf5\xca\x1d\x7f\xf0\x17\x14'
p2380
bsVevent
p2381
Vqa@kdm-manager.com added Organ Grinder to settlement locations.
p2382
sVly
p2383
V1
p2384
sa(dp2385
Vevent_type
p2386
NsVcreated_by
p2387
g15
(g16
g17
Ntp2388
Rp2389
S'Xk\xd1\x9aJ\xf5\xca\x13\xb3\x1a%\xce'
p2390
bsVcreated_on
p2391
g10
(S'\x07\xe1\x01\x03\r.\x10\x06tX'
p2392
tp2393
Rp2394
sVsettlement_id
p2395
g15
(g16
g17
Ntp2396
Rp2397
S'Xk\xeb\x0eJ\xf5\xca\x17\x8d\xfb\xc7\x85'
p2398
bsV_id
p2399
g15
(g16
g17
Ntp2400
Rp2401
S'Xk\xff\x88J\xf5\xca\x1d\xca\x12`h'
p2402
bsVevent
p2403
Vqa@kdm-manager.com added Skinnery to settlement locations.
p2404
sVly
p2405
V1
p2406
sa(dp2407
Vevent_type
p2408
NsVcreated_by
p2409
g15
(g16
g17
Ntp2410
Rp2411
S'Xk\xd1\x9aJ\xf5\xca\x13\xb3\x1a%\xce'
p2412
bsVcreated_on
p2413
g10
(S'\x07\xe1\x01\x03\r/,\x0f*\xd0'
p2414
tp2415
Rp2416
sVsettlement_id
p2417
g15
(g16
g17
Ntp2418
Rp2419
S'Xk\xeb\x0eJ\xf5\xca\x17\x8d\xfb\xc7\x85'
p2420
bsV_id
p2421
g15
(g16
g17
Ntp2422
Rp2423
S'Xk\xff\xe0J\xf5\xca\x1d\xfaj`\x03'
p2424
bsVevent
p2425
Vqa@kdm-manager.com added Bone Smith to settlement locations.
p2426
sVly
p2427
V1
p2428
sa(dp2429
Vevent_type
p2430
NsVcreated_by
p2431
g15
(g16
g17
Ntp2432
Rp2433
S'Xk\xd1\x9aJ\xf5\xca\x13\xb3\x1a%\xce'
p2434
bsVcreated_on
p2435
g10
(S'\x07\xe1\x01\x03\r2\x04\x0b\xd7@'
p2436
tp2437
Rp2438
sVsettlement_id
p2439
g15
(g16
g17
Ntp2440
Rp2441
S'Xk\xeb\x0eJ\xf5\xca\x17\x8d\xfb\xc7\x85'
p2442
bsV_id
p2443
g15
(g16
g17
Ntp2444
Rp2445
S'Xl\x00lJ\xf5\xca\x1ei\x14#\x9b'
p2446
bsVevent
p2447
Vqa@kdm-manager.com added 'Bone Blade' x2 to settlement storage.
p2448
sVly
p2449
V1
p2450
sa(dp2451
Vevent_type
p2452
NsVcreated_by
p2453
g15
(g16
g17
Ntp2454
Rp2455
S'Xk\xd1\x9aJ\xf5\xca\x13\xb3\x1a%\xce'
p2456
bsVcreated_on
p2457
g10
(S'\x07\xe1\x01\x03\r2\x17\t3x'
p2458
tp2459
Rp2460
sVsettlement_id
p2461
g15
(g16
g17
Ntp2462
Rp2463
S'Xk\xeb\x0eJ\xf5\xca\x17\x8d\xfb\xc7\x85'
p2464
bsV_id
p2465
g15
(g16
g17
Ntp2466
Rp2467
S'Xl\x00\x7fJ\xf5\xca\x1e~\xcbh\xf8'
p2468
bsVevent
p2469
Vqa@kdm-manager.com removed 1 'Bone Blade' item(s) from settlement storage.
p2470
sVly
p2471
V1
p2472
sa(dp2473
Vevent_type
p2474
NsVcreated_by
p2475
g15
(g16
g17
Ntp2476
Rp2477
S'Xk\xd1\x9aJ\xf5\xca\x13\xb3\x1a%\xce'
p2478
bsVcreated_on
p2479
g10
(S'\x07\xe1\x01\x03\r2,\x0c\x92\xc0'
p2480
tp2481
Rp2482
sVsettlement_id
p2483
g15
(g16
g17
Ntp2484
Rp2485
S'Xk\xeb\x0eJ\xf5\xca\x17\x8d\xfb\xc7\x85'
p2486
bsV_id
p2487
g15
(g16
g17
Ntp2488
Rp2489
S'Xl\x00\x94J\xf5\xca\x1e\x86)Q\xd2'
p2490
bsVevent
p2491
Vqa@kdm-manager.com added 'Bone Axe' x1 to settlement storage.
p2492
sVly
p2493
V1
p2494
sa(dp2495
Vevent_type
p2496
NsVcreated_by
p2497
g15
(g16
g17
Ntp2498
Rp2499
S'Xk\xd1\x9aJ\xf5\xca\x13\xb3\x1a%\xce'
p2500
bsVcreated_on
p2501
g10
(S'\x07\xe1\x01\x03\r3\x02\x0c\x1d\x90'
p2502
tp2503
Rp2504
sVsettlement_id
p2505
g15
(g16
g17
Ntp2506
Rp2507
S'Xk\xeb\x0eJ\xf5\xca\x17\x8d\xfb\xc7\x85'
p2508
bsV_id
p2509
g15
(g16
g17
Ntp2510
Rp2511
S'Xl\x00\xa6J\xf5\xca\x1e\x9a\xf6\xa8='
p2512
bsVevent
p2513
Vqa@kdm-manager.com added 'Lion Testes' x1 to settlement storage.
p2514
sVly
p2515
V1
p2516
sa(dp2517
Vevent_type
p2518
NsVcreated_by
p2519
g15
(g16
g17
Ntp2520
Rp2521
S'Xk\xd1\x9aJ\xf5\xca\x13\xb3\x1a%\xce'
p2522
bsVcreated_on
p2523
g10
(S'\x07\xe1\x01\x03\r5\x03\x02\xd2\xa8'
p2524
tp2525
Rp2526
sVsettlement_id
p2527
g15
(g16
g17
Ntp2528
Rp2529
S'Xk\xeb\x0eJ\xf5\xca\x17\x8d\xfb\xc7\x85'
p2530
bsV_id
p2531
g15
(g16
g17
Ntp2532
Rp2533
S'Xl\x01\x1fJ\xf5\xca\x1f\x1d\xe1\xb5\xc4'
p2534
bsVevent
p2535
Vqa@kdm-manager.com added 'Monster Grease' x1 to settlement storage.
p2536
sVly
p2537
V1
p2538
sa(dp2539
Vevent_type
p2540
NsVcreated_by
p2541
g15
(g16
g17
Ntp2542
Rp2543
S'Xk\xd1\x9aJ\xf5\xca\x13\xb3\x1a%\xce'
p2544
bsVcreated_on
p2545
g10
(S'\x07\xe1\x01\x03\r5\x14\x0ec\x98'
p2546
tp2547
Rp2548
sVsettlement_id
p2549
g15
(g16
g17
Ntp2550
Rp2551
S'Xk\xeb\x0eJ\xf5\xca\x17\x8d\xfb\xc7\x85'
p2552
bsV_id
p2553
g15
(g16
g17
Ntp2554
Rp2555
S'Xl\x010J\xf5\xca\x1f%\xe2\n '
p2556
bsVevent
p2557
Vqa@kdm-manager.com added 'Rawhide Boots' x1 to settlement storage.
p2558
sVly
p2559
V1
p2560
sa(dp2561
Vevent_type
p2562
NsVcreated_by
p2563
g15
(g16
g17
Ntp2564
Rp2565
S'Xk\xd1\x9aJ\xf5\xca\x13\xb3\x1a%\xce'
p2566
bsVcreated_on
p2567
g10
(S'\x07\xe1\x01\x03\r50\x0f\x1f\x18'
p2568
tp2569
Rp2570
sVsettlement_id
p2571
g15
(g16
g17
Ntp2572
Rp2573
S'Xk\xeb\x0eJ\xf5\xca\x17\x8d\xfb\xc7\x85'
p2574
bsV_id
p2575
g15
(g16
g17
Ntp2576
Rp2577
S'Xl\x01LJ\xf5\xca\x1f:f\xfe4'
p2578
bsVevent
p2579
Vqa@kdm-manager.com added 'Rawhide Boots' x1 to settlement storage.
p2580
sVly
p2581
V1
p2582
sa(dp2583
Vevent_type
p2584
NsVcreated_by
p2585
g15
(g16
g17
Ntp2586
Rp2587
S'Xk\xd1\x9aJ\xf5\xca\x13\xb3\x1a%\xce'
p2588
bsVcreated_on
p2589
g10
(S'\x07\xe1\x01\x03\r5:\x07\xfa\xf8'
p2590
tp2591
Rp2592
sVsettlement_id
p2593
g15
(g16
g17
Ntp2594
Rp2595
S'Xk\xeb\x0eJ\xf5\xca\x17\x8d\xfb\xc7\x85'
p2596
bsV_id
p2597
g15
(g16
g17
Ntp2598
Rp2599
S'Xl\x01VJ\xf5\xca\x1fB\xdf\x1b\xf2'
p2600
bsVevent
p2601
Vqa@kdm-manager.com added 'Rawhide Gloves' x1 to settlement storage.
p2602
sVly
p2603
V1
p2604
sa(dp2605
Vevent_type
p2606
NsVcreated_by
p2607
g15
(g16
g17
Ntp2608
Rp2609
S'Xk\xd1\x9aJ\xf5\xca\x13\xb3\x1a%\xce'
p2610
bsVcreated_on
p2611
g10
(S'\x07\xe1\x01\x03\r6\n\x05\x14\xc8'
p2612
tp2613
Rp2614
sVsettlement_id
p2615
g15
(g16
g17
Ntp2616
Rp2617
S'Xk\xeb\x0eJ\xf5\xca\x17\x8d\xfb\xc7\x85'
p2618
bsV_id
p2619
g15
(g16
g17
Ntp2620
Rp2621
S'Xl\x01bJ\xf5\xca\x1fV\xbf\xfb\x8c'
p2622
bsVevent
p2623
Vqa@kdm-manager.com added 'Rawhide Headband' x1 to settlement storage.
p2624
sVly
p2625
V1
p2626
sa(dp2627
Vevent_type
p2628
NsVcreated_by
p2629
g15
(g16
g17
Ntp2630
Rp2631
S'Xk\xd1\x9aJ\xf5\xca\x13\xb3\x1a%\xce'
p2632
bsVcreated_on
p2633
g10
(S'\x07\xe1\x01\x03\r6#\x05\xb1\x08'
p2634
tp2635
Rp2636
sVsettlement_id
p2637
g15
(g16
g17
Ntp2638
Rp2639
S'Xk\xeb\x0eJ\xf5\xca\x17\x8d\xfb\xc7\x85'
p2640
bsV_id
p2641
g15
(g16
g17
Ntp2642
Rp2643
S'Xl\x01{J\xf5\xca\x1fj\xde.0'
p2644
bsVevent
p2645
Vqa@kdm-manager.com added 'Monster Organ' x1 to settlement storage.
p2646
sVly
p2647
V1
p2648
sa(dp2649
Vevent_type
p2650
NsVcreated_by
p2651
g15
(g16
g17
Ntp2652
Rp2653
S'Xk\xd1\x9aJ\xf5\xca\x13\xb3\x1a%\xce'
p2654
bsVcreated_on
p2655
g10
(S'\x07\xe1\x01\x04\x12\x083\x01\x8a\x88'
p2656
tp2657
Rp2658
sVsettlement_id
p2659
g15
(g16
g17
Ntp2660
Rp2661
S'Xm\x86\xa7J\xf5\xca2\xfbW1\xc8'
p2662
bsV_id
p2663
g15
(g16
g17
Ntp2664
Rp2665
S"Xm\x8e\x93J\xf5\xca4'\x8b\xa9\xba"
p2666
bsVevent
p2667
Vqa@kdm-manager.com removed Elvis [M] from the Departing Survivors group.
p2668
sVly
p2669
I0
sa(dp2670
Vevent_type
p2671
NsVcreated_by
p2672
g15
(g16
g17
Ntp2673
Rp2674
S'Xk\xd1\x9aJ\xf5\xca\x13\xb3\x1a%\xce'
p2675
bsVcreated_on
p2676
g10
(S'\x07\xe1\x01\x04\x12\x0b\x13\x0b\xe2\xf8'
p2677
tp2678
Rp2679
sVsettlement_id
p2680
g15
(g16
g17
Ntp2681
Rp2682
S'Xm\x86\xa7J\xf5\xca2\xfbW1\xc8'
p2683
bsV_id
p2684
g15
(g16
g17
Ntp2685
Rp2686
S"Xm\x8f'J\xf5\xca4Dw\x99@"
p2687
bsVevent
p2688
Vqa@kdm-manager.com removed Elvis [M] from the Departing Survivors group.
p2689
sVly
p2690
I0
sa(dp2691
Vevent_type
p2692
NsVcreated_by
p2693
g15
(g16
g17
Ntp2694
Rp2695
S'Xk\xd1\x9aJ\xf5\xca\x13\xb3\x1a%\xce'
p2696
bsVcreated_on
p2697
g10
(S'\x07\xe1\x01\x03\x0c\x126\n)\x90'
p2698
tp2699
Rp2700
sVsettlement_id
p2701
g15
(g16
g17
Ntp2702
Rp2703
S'Xk\xeb\x0eJ\xf5\xca\x17\x8d\xfb\xc7\x85'
p2704
bsV_id
p2705
g15
(g16
g17
Ntp2706
Rp2707
S'Xk\xeb\x0eJ\xf5\xca\x17\x8d\xfb\xc7\x86'
p2708
bsVevent
p2709
Vqa@kdm-manager.com added 'Founding Stone' x4 to settlement storage.
p2710
sVly
p2711
I0
sa(dp2712
Vevent_type
p2713
NsVcreated_by
p2714
g15
(g16
g17
Ntp2715
Rp2716
S'Xk\xd1\x9aJ\xf5\xca\x13\xb3\x1a%\xce'
p2717
bsVcreated_on
p2718
g10
(S'\x07\xe1\x01\x03\x0c\x126\n-x'
p2719
tp2720
Rp2721
sVsettlement_id
p2722
g15
(g16
g17
Ntp2723
Rp2724
S'Xk\xeb\x0eJ\xf5\xca\x17\x8d\xfb\xc7\x85'
p2725
bsV_id
p2726
g15
(g16
g17
Ntp2727
Rp2728
S'Xk\xeb\x0eJ\xf5\xca\x17\x8d\xfb\xc7\x87'
p2729
bsVevent
p2730
Vqa@kdm-manager.com added 'Cloth' x4 to settlement storage.
p2731
sVly
p2732
I0
sa(dp2733
Vevent_type
p2734
NsVcreated_by
p2735
g15
(g16
g17
Ntp2736
Rp2737
S'Xk\xd1\x9aJ\xf5\xca\x13\xb3\x1a%\xce'
p2738
bsVcreated_on
p2739
g10
(S'\x07\xe1\x01\x03\x0c\x126\n1`'
p2740
tp2741
Rp2742
sVsettlement_id
p2743
g15
(g16
g17
Ntp2744
Rp2745
S'Xk\xeb\x0eJ\xf5\xca\x17\x8d\xfb\xc7\x85'
p2746
bsV_id
p2747
g15
(g16
g17
Ntp2748
Rp2749
S'Xk\xeb\x0eJ\xf5\xca\x17\x8d\xfb\xc7\x88'
p2750
bsVevent
p2751
Vqa@kdm-manager.com is adding a new survivor to the settlement!
p2752
sVly
p2753
I0
sa(dp2754
Vevent_type
p2755
NsVcreated_by
p2756
g15
(g16
g17
Ntp2757
Rp2758
S'Xk\xd1\x9aJ\xf5\xca\x13\xb3\x1a%\xce'
p2759
bsVcreated_on
p2760
g10
(S'\x07\xe1\x01\x03\x0c\x126\n5H'
p2761
tp2762
Rp2763
sVsettlement_id
p2764
g15
(g16
g17
Ntp2765
Rp2766
S'Xk\xeb\x0eJ\xf5\xca\x17\x8d\xfb\xc7\x85'
p2767
bsV_id
p2768
g15
(g16
g17
Ntp2769
Rp2770
S'Xk\xeb\x0eJ\xf5\xca\x17\x8d\xfb\xc7\x89'
p2771
bsVevent
p2772
VA random name has been assigned to the new survivor due to user preference.
p2773
sVly
p2774
I0
sa(dp2775
Vevent_type
p2776
NsVcreated_by
p2777
g15
(g16
g17
Ntp2778
Rp2779
S'Xk\xd1\x9aJ\xf5\xca\x13\xb3\x1a%\xce'
p2780
bsVcreated_on
p2781
g10
(S'\x07\xe1\x01\x03\x0c\x126\n90'
p2782
tp2783
Rp2784
sVsettlement_id
p2785
g15
(g16
g17
Ntp2786
Rp2787
S'Xk\xeb\x0eJ\xf5\xca\x17\x8d\xfb\xc7\x85'
p2788
bsV_id
p2789
g15
(g16
g17
Ntp2790
Rp2791
S'Xk\xeb\x0eJ\xf5\xca\x17\x8d\xfb\xc7\x8b'
p2792
bsVevent
p2793
VAutomatically adding 1 survival to Oliver
p2794
sVly
p2795
I0
sa(dp2796
Vevent_type
p2797
NsVcreated_by
p2798
g15
(g16
g17
Ntp2799
Rp2800
S'Xk\xd1\x9aJ\xf5\xca\x13\xb3\x1a%\xce'
p2801
bsVcreated_on
p2802
g10
(S'\x07\xe1\x01\x03\x0c\x126\n=\x18'
p2803
tp2804
Rp2805
sVsettlement_id
p2806
g15
(g16
g17
Ntp2807
Rp2808
S'Xk\xeb\x0eJ\xf5\xca\x17\x8d\xfb\xc7\x85'
p2809
bsV_id
p2810
g15
(g16
g17
Ntp2811
Rp2812
S'Xk\xeb\x0eJ\xf5\xca\x17\x8d\xfb\xc7\x8c'
p2813
bsVevent
p2814
VAutomatically changed population from 0 to 1
p2815
sVly
p2816
I0
sa(dp2817
Vevent_type
p2818
NsVcreated_by
p2819
g15
(g16
g17
Ntp2820
Rp2821
S'Xk\xd1\x9aJ\xf5\xca\x13\xb3\x1a%\xce'
p2822
bsVcreated_on
p2823
g10
(S'\x07\xe1\x01\x03\x0c\x126\nh\x10'
p2824
tp2825
Rp2826
sVsettlement_id
p2827
g15
(g16
g17
Ntp2828
Rp2829
S'Xk\xeb\x0eJ\xf5\xca\x17\x8d\xfb\xc7\x85'
p2830
bsV_id
p2831
g15
(g16
g17
Ntp2832
Rp2833
S'Xk\xeb\x0eJ\xf5\xca\x17\x8d\xfb\xc7\x8d'
p2834
bsVevent
p2835
VOliver [M] has joined the hunting party.
p2836
sVly
p2837
I0
sa(dp2838
Vevent_type
p2839
NsVcreated_by
p2840
g15
(g16
g17
Ntp2841
Rp2842
S'Xk\xd1\x9aJ\xf5\xca\x13\xb3\x1a%\xce'
p2843
bsVcreated_on
p2844
g10
(S'\x07\xe1\x01\x03\x0c\x126\nk\xf8'
p2845
tp2846
Rp2847
sVsettlement_id
p2848
g15
(g16
g17
Ntp2849
Rp2850
S'Xk\xeb\x0eJ\xf5\xca\x17\x8d\xfb\xc7\x85'
p2851
bsV_id
p2852
g15
(g16
g17
Ntp2853
Rp2854
S'Xk\xeb\x0eJ\xf5\xca\x17\x8d\xfb\xc7\x8e'
p2855
bsVevent
p2856
Vqa@kdm-manager.com is adding a new survivor to the settlement!
p2857
sVly
p2858
I0
sa(dp2859
Vevent_type
p2860
NsVcreated_by
p2861
g15
(g16
g17
Ntp2862
Rp2863
S'Xk\xd1\x9aJ\xf5\xca\x13\xb3\x1a%\xce'
p2864
bsVcreated_on
p2865
g10
(S'\x07\xe1\x01\x03\x0c\x126\no\xe0'
p2866
tp2867
Rp2868
sVsettlement_id
p2869
g15
(g16
g17
Ntp2870
Rp2871
S'Xk\xeb\x0eJ\xf5\xca\x17\x8d\xfb\xc7\x85'
p2872
bsV_id
p2873
g15
(g16
g17
Ntp2874
Rp2875
S'Xk\xeb\x0eJ\xf5\xca\x17\x8d\xfb\xc7\x8f'
p2876
bsVevent
p2877
VA random name has been assigned to the new survivor due to user preference.
p2878
sVly
p2879
I0
sa(dp2880
Vevent_type
p2881
NsVcreated_by
p2882
g15
(g16
g17
Ntp2883
Rp2884
S'Xk\xd1\x9aJ\xf5\xca\x13\xb3\x1a%\xce'
p2885
bsVcreated_on
p2886
g10
(S'\x07\xe1\x01\x03\x0c\x126\ns\xc8'
p2887
tp2888
Rp2889
sVsettlement_id
p2890
g15
(g16
g17
Ntp2891
Rp2892
S'Xk\xeb\x0eJ\xf5\xca\x17\x8d\xfb\xc7\x85'
p2893
bsV_id
p2894
g15
(g16
g17
Ntp2895
Rp2896
S'Xk\xeb\x0eJ\xf5\xca\x17\x8d\xfb\xc7\x91'
p2897
bsVevent
p2898
VAutomatically adding 1 survival to Rashad
p2899
sVly
p2900
I0
sa(dp2901
Vevent_type
p2902
NsVcreated_by
p2903
g15
(g16
g17
Ntp2904
Rp2905
S'Xk\xd1\x9aJ\xf5\xca\x13\xb3\x1a%\xce'
p2906
bsVcreated_on
p2907
g10
(S'\x07\xe1\x01\x03\x0c\x126\nw\xb0'
p2908
tp2909
Rp2910
sVsettlement_id
p2911
g15
(g16
g17
Ntp2912
Rp2913
S'Xk\xeb\x0eJ\xf5\xca\x17\x8d\xfb\xc7\x85'
p2914
bsV_id
p2915
g15
(g16
g17
Ntp2916
Rp2917
S'Xk\xeb\x0eJ\xf5\xca\x17\x8d\xfb\xc7\x92'
p2918
bsVevent
p2919
VAutomatically changed population from 1 to 2
p2920
sVly
p2921
I0
sa(dp2922
Vevent_type
p2923
NsVcreated_by
p2924
g15
(g16
g17
Ntp2925
Rp2926
S'Xk\xd1\x9aJ\xf5\xca\x13\xb3\x1a%\xce'
p2927
bsVcreated_on
p2928
g10
(S'\x07\xe1\x01\x03\x0c\x126\n\x9e\xc0'
p2929
tp2930
Rp2931
sVsettlement_id
p2932
g15
(g16
g17
Ntp2933
Rp2934
S'Xk\xeb\x0eJ\xf5\xca\x17\x8d\xfb\xc7\x85'
p2935
bsV_id
p2936
g15
(g16
g17
Ntp2937
Rp2938
S'Xk\xeb\x0eJ\xf5\xca\x17\x8d\xfb\xc7\x93'
p2939
bsVevent
p2940
VRashad [M] has joined the hunting party.
p2941
sVly
p2942
I0
sa(dp2943
Vevent_type
p2944
NsVcreated_by
p2945
g15
(g16
g17
Ntp2946
Rp2947
S'Xk\xd1\x9aJ\xf5\xca\x13\xb3\x1a%\xce'
p2948
bsVcreated_on
p2949
g10
(S'\x07\xe1\x01\x03\x0c\x126\n\xa2\xa8'
p2950
tp2951
Rp2952
sVsettlement_id
p2953
g15
(g16
g17
Ntp2954
Rp2955
S'Xk\xeb\x0eJ\xf5\xca\x17\x8d\xfb\xc7\x85'
p2956
bsV_id
p2957
g15
(g16
g17
Ntp2958
Rp2959
S'Xk\xeb\x0eJ\xf5\xca\x17\x8d\xfb\xc7\x94'
p2960
bsVevent
p2961
Vqa@kdm-manager.com is adding a new survivor to the settlement!
p2962
sVly
p2963
I0
sa(dp2964
Vevent_type
p2965
NsVcreated_by
p2966
g15
(g16
g17
Ntp2967
Rp2968
S'Xk\xd1\x9aJ\xf5\xca\x13\xb3\x1a%\xce'
p2969
bsVcreated_on
p2970
g10
(S'\x07\xe1\x01\x03\x0c\x126\n\xa6\x90'
p2971
tp2972
Rp2973
sVsettlement_id
p2974
g15
(g16
g17
Ntp2975
Rp2976
S'Xk\xeb\x0eJ\xf5\xca\x17\x8d\xfb\xc7\x85'
p2977
bsV_id
p2978
g15
(g16
g17
Ntp2979
Rp2980
S'Xk\xeb\x0eJ\xf5\xca\x17\x8d\xfb\xc7\x95'
p2981
bsVevent
p2982
VA random name has been assigned to the new survivor due to user preference.
p2983
sVly
p2984
I0
sa(dp2985
Vevent_type
p2986
NsVcreated_by
p2987
g15
(g16
g17
Ntp2988
Rp2989
S'Xk\xd1\x9aJ\xf5\xca\x13\xb3\x1a%\xce'
p2990
bsVcreated_on
p2991
g10
(S'\x07\xe1\x01\x03\x0c\x126\n\xaax'
p2992
tp2993
Rp2994
sVsettlement_id
p2995
g15
(g16
g17
Ntp2996
Rp2997
S'Xk\xeb\x0eJ\xf5\xca\x17\x8d\xfb\xc7\x85'
p2998
bsV_id
p2999
g15
(g16
g17
Ntp3000
Rp3001
S'Xk\xeb\x0eJ\xf5\xca\x17\x8d\xfb\xc7\x97'
p3002
bsVevent
p3003
VAutomatically adding 1 survival to Maleficent
p3004
sVly
p3005
I0
sa(dp3006
Vevent_type
p3007
NsVcreated_by
p3008
g15
(g16
g17
Ntp3009
Rp3010
S'Xk\xd1\x9aJ\xf5\xca\x13\xb3\x1a%\xce'
p3011
bsVcreated_on
p3012
g10
(S'\x07\xe1\x01\x03\x0c\x126\n\xb2H'
p3013
tp3014
Rp3015
sVsettlement_id
p3016
g15
(g16
g17
Ntp3017
Rp3018
S'Xk\xeb\x0eJ\xf5\xca\x17\x8d\xfb\xc7\x85'
p3019
bsV_id
p3020
g15
(g16
g17
Ntp3021
Rp3022
S'Xk\xeb\x0eJ\xf5\xca\x17\x8d\xfb\xc7\x98'
p3023
bsVevent
p3024
VAutomatically changed population from 2 to 3
p3025
sVly
p3026
I0
sa(dp3027
Vevent_type
p3028
NsVcreated_by
p3029
g15
(g16
g17
Ntp3030
Rp3031
S'Xk\xd1\x9aJ\xf5\xca\x13\xb3\x1a%\xce'
p3032
bsVcreated_on
p3033
g10
(S'\x07\xe1\x01\x03\x0c\x126\n\xd5p'
p3034
tp3035
Rp3036
sVsettlement_id
p3037
g15
(g16
g17
Ntp3038
Rp3039
S'Xk\xeb\x0eJ\xf5\xca\x17\x8d\xfb\xc7\x85'
p3040
bsV_id
p3041
g15
(g16
g17
Ntp3042
Rp3043
S'Xk\xeb\x0eJ\xf5\xca\x17\x8d\xfb\xc7\x99'
p3044
bsVevent
p3045
VMaleficent [F] has joined the hunting party.
p3046
sVly
p3047
I0
sa(dp3048
Vevent_type
p3049
NsVcreated_by
p3050
g15
(g16
g17
Ntp3051
Rp3052
S'Xk\xd1\x9aJ\xf5\xca\x13\xb3\x1a%\xce'
p3053
bsVcreated_on
p3054
g10
(S'\x07\xe1\x01\x03\x0c\x126\n\xdd@'
p3055
tp3056
Rp3057
sVsettlement_id
p3058
g15
(g16
g17
Ntp3059
Rp3060
S'Xk\xeb\x0eJ\xf5\xca\x17\x8d\xfb\xc7\x85'
p3061
bsV_id
p3062
g15
(g16
g17
Ntp3063
Rp3064
S'Xk\xeb\x0eJ\xf5\xca\x17\x8d\xfb\xc7\x9a'
p3065
bsVevent
p3066
Vqa@kdm-manager.com is adding a new survivor to the settlement!
p3067
sVly
p3068
I0
sa(dp3069
Vevent_type
p3070
NsVcreated_by
p3071
g15
(g16
g17
Ntp3072
Rp3073
S'Xk\xd1\x9aJ\xf5\xca\x13\xb3\x1a%\xce'
p3074
bsVcreated_on
p3075
g10
(S'\x07\xe1\x01\x03\x0c\x126\n\xdd@'
p3076
tp3077
Rp3078
sVsettlement_id
p3079
g15
(g16
g17
Ntp3080
Rp3081
S'Xk\xeb\x0eJ\xf5\xca\x17\x8d\xfb\xc7\x85'
p3082
bsV_id
p3083
g15
(g16
g17
Ntp3084
Rp3085
S'Xk\xeb\x0eJ\xf5\xca\x17\x8d\xfb\xc7\x9b'
p3086
bsVevent
p3087
VA random name has been assigned to the new survivor due to user preference.
p3088
sVly
p3089
I0
sa(dp3090
Vevent_type
p3091
NsVcreated_by
p3092
g15
(g16
g17
Ntp3093
Rp3094
S'Xk\xd1\x9aJ\xf5\xca\x13\xb3\x1a%\xce'
p3095
bsVcreated_on
p3096
g10
(S'\x07\xe1\x01\x03\x0c\x126\n\xe5\x10'
p3097
tp3098
Rp3099
sVsettlement_id
p3100
g15
(g16
g17
Ntp3101
Rp3102
S'Xk\xeb\x0eJ\xf5\xca\x17\x8d\xfb\xc7\x85'
p3103
bsV_id
p3104
g15
(g16
g17
Ntp3105
Rp3106
S'Xk\xeb\x0eJ\xf5\xca\x17\x8d\xfb\xc7\x9d'
p3107
bsVevent
p3108
VAutomatically adding 1 survival to Elena
p3109
sVly
p3110
I0
sa(dp3111
Vevent_type
p3112
NsVcreated_by
p3113
g15
(g16
g17
Ntp3114
Rp3115
S'Xk\xd1\x9aJ\xf5\xca\x13\xb3\x1a%\xce'
p3116
bsVcreated_on
p3117
g10
(S'\x07\xe1\x01\x03\x0c\x126\n\xe8\xf8'
p3118
tp3119
Rp3120
sVsettlement_id
p3121
g15
(g16
g17
Ntp3122
Rp3123
S'Xk\xeb\x0eJ\xf5\xca\x17\x8d\xfb\xc7\x85'
p3124
bsV_id
p3125
g15
(g16
g17
Ntp3126
Rp3127
S'Xk\xeb\x0eJ\xf5\xca\x17\x8d\xfb\xc7\x9e'
p3128
bsVevent
p3129
VAutomatically changed population from 3 to 4
p3130
sVly
p3131
I0
sa(dp3132
Vevent_type
p3133
NsVcreated_by
p3134
g15
(g16
g17
Ntp3135
Rp3136
S'Xk\xd1\x9aJ\xf5\xca\x13\xb3\x1a%\xce'
p3137
bsVcreated_on
p3138
g10
(S'\x07\xe1\x01\x03\x0c\x126\x0b\x10\x08'
p3139
tp3140
Rp3141
sVsettlement_id
p3142
g15
(g16
g17
Ntp3143
Rp3144
S'Xk\xeb\x0eJ\xf5\xca\x17\x8d\xfb\xc7\x85'
p3145
bsV_id
p3146
g15
(g16
g17
Ntp3147
Rp3148
S'Xk\xeb\x0eJ\xf5\xca\x17\x8d\xfb\xc7\x9f'
p3149
bsVevent
p3150
VElena [F] has joined the hunting party.
p3151
sVly
p3152
I0
sa(dp3153
Vevent_type
p3154
NsVcreated_by
p3155
g15
(g16
g17
Ntp3156
Rp3157
S'Xk\xd1\x9aJ\xf5\xca\x13\xb3\x1a%\xce'
p3158
bsVcreated_on
p3159
g10
(S'\x07\xe1\x01\x03\x0c\x126\x0b\x10\x08'
p3160
tp3161
Rp3162
sVsettlement_id
p3163
g15
(g16
g17
Ntp3164
Rp3165
S'Xk\xeb\x0eJ\xf5\xca\x17\x8d\xfb\xc7\x85'
p3166
bsV_id
p3167
g15
(g16
g17
Ntp3168
Rp3169
S'Xk\xeb\x0eJ\xf5\xca\x17\x8d\xfb\xc7\xa0'
p3170
bsVevent
p3171
VAdded four new survivors and Starting Gear to settlement storage
p3172
sVly
p3173
I0
sa(dp3174
Vevent_type
p3175
NsVcreated_by
p3176
g15
(g16
g17
Ntp3177
Rp3178
S'Xk\xd1\x9aJ\xf5\xca\x13\xb3\x1a%\xce'
p3179
bsVcreated_on
p3180
g10
(S'\x07\xe1\x01\x03\x0c\x126\x0b\x13\xf0'
p3181
tp3182
Rp3183
sVsettlement_id
p3184
g15
(g16
g17
Ntp3185
Rp3186
S'Xk\xeb\x0eJ\xf5\xca\x17\x8d\xfb\xc7\x85'
p3187
bsV_id
p3188
g15
(g16
g17
Ntp3189
Rp3190
S'Xk\xeb\x0eJ\xf5\xca\x17\x8d\xfb\xc7\xa1'
p3191
bsVevent
p3192
VCurrent quarry is White Lion (First Story)
p3193
sVly
p3194
I0
sa(dp3195
Vcreated_on
p3196
g10
(S"\x07\xe1\x01\x03\x0c\x126\x0b'x"
p3197
tp3198
Rp3199
sV_id
p3200
g15
(g16
g17
Ntp3201
Rp3202
S'Xk\xeb\x0eJ\xf5\xca\x13\x81\xc9\xb9\xc2'
p3203
bsVevent
p3204
Vqa@kdm-manager.com added 'White Lion (First Story)' to Lantern Year 0
p3205
sVsettlement_id
p3206
g15
(g16
g17
Ntp3207
Rp3208
S'Xk\xeb\x0eJ\xf5\xca\x17\x8d\xfb\xc7\x85'
p3209
bsVly
p3210
I0
sa(dp3211
Vcreated_on
p3212
g10
(S'\x07\xe1\x01\x03\x0c\x126\x0c\xd1@'
p3213
tp3214
Rp3215
sV_id
p3216
g15
(g16
g17
Ntp3217
Rp3218
S'Xk\xeb\x0eJ\xf5\xca\x13\x81\xc9\xb9\xc3'
p3219
bsVevent
p3220
VAdding 'Lion God' expansion content!
p3221
sVsettlement_id
p3222
g15
(g16
g17
Ntp3223
Rp3224
S'Xk\xeb\x0eJ\xf5\xca\x17\x8d\xfb\xc7\x85'
p3225
bsVly
p3226
I0
sa(dp3227
Vcreated_on
p3228
g10
(S'\x07\xe1\x01\x03\x0c\x126\x0c\xd9\x10'
p3229
tp3230
Rp3231
sV_id
p3232
g15
(g16
g17
Ntp3233
Rp3234
S'Xk\xeb\x0eJ\xf5\xca\x13\x81\xc9\xb9\xc4'
p3235
bsVevent
p3236
VAutomatically added 'The Silver City' to Lantern Year 13
p3237
sVsettlement_id
p3238
g15
(g16
g17
Ntp3239
Rp3240
S'Xk\xeb\x0eJ\xf5\xca\x17\x8d\xfb\xc7\x85'
p3241
bsVly
p3242
I0
sa(dp3243
Vcreated_on
p3244
g10
(S'\x07\xe1\x01\x03\x0c\x126\x0c\xdc\xf8'
p3245
tp3246
Rp3247
sV_id
p3248
g15
(g16
g17
Ntp3249
Rp3250
S'Xk\xeb\x0eJ\xf5\xca\x13\x81\xc9\xb9\xc5'
p3251
bsVevent
p3252
VAdding 'Lonely Tree' expansion content!
p3253
sVsettlement_id
p3254
g15
(g16
g17
Ntp3255
Rp3256
S'Xk\xeb\x0eJ\xf5\xca\x17\x8d\xfb\xc7\x85'
p3257
bsVly
p3258
I0
sa(dp3259
Vcreated_on
p3260
g10
(S'\x07\xe1\x01\x03\x0c\x126\x0c\xe0\xe0'
p3261
tp3262
Rp3263
sV_id
p3264
g15
(g16
g17
Ntp3265
Rp3266
S'Xk\xeb\x0eJ\xf5\xca\x13\x81\xc9\xb9\xc6'
p3267
bsVevent
p3268
VAdding 'Manhunter' expansion content!
p3269
sVsettlement_id
p3270
g15
(g16
g17
Ntp3271
Rp3272
S'Xk\xeb\x0eJ\xf5\xca\x17\x8d\xfb\xc7\x85'
p3273
bsVly
p3274
I0
sa(dp3275
Vcreated_on
p3276
g10
(S'\x07\xe1\x01\x03\x0c\x126\x0c\xe8\xb0'
p3277
tp3278
Rp3279
sV_id
p3280
g15
(g16
g17
Ntp3281
Rp3282
S'Xk\xeb\x0eJ\xf5\xca\x13\x81\xc9\xb9\xc7'
p3283
bsVevent
p3284
VAutomatically added 'The Hanged Man' to Lantern Year 5
p3285
sVsettlement_id
p3286
g15
(g16
g17
Ntp3287
Rp3288
S'Xk\xeb\x0eJ\xf5\xca\x17\x8d\xfb\xc7\x85'
p3289
bsVly
p3290
I0
sa(dp3291
Vcreated_on
p3292
g10
(S'\x07\xe1\x01\x03\x0c\x126\x0c\xec\x98'
p3293
tp3294
Rp3295
sV_id
p3296
g15
(g16
g17
Ntp3297
Rp3298
S'Xk\xeb\x0eJ\xf5\xca\x13\x81\xc9\xb9\xc8'
p3299
bsVevent
p3300
VAutomatically added 'Special Showdown - Manhunter' to Lantern Year 5
p3301
sVsettlement_id
p3302
g15
(g16
g17
Ntp3303
Rp3304
S'Xk\xeb\x0eJ\xf5\xca\x17\x8d\xfb\xc7\x85'
p3305
bsVly
p3306
I0
sa(dp3307
Vcreated_on
p3308
g10
(S'\x07\xe1\x01\x03\x0c\x126\x0c\xf4h'
p3309
tp3310
Rp3311
sV_id
p3312
g15
(g16
g17
Ntp3313
Rp3314
S'Xk\xeb\x0eJ\xf5\xca\x13\x81\xc9\xb9\xc9'
p3315
bsVevent
p3316
VAutomatically added 'Special Showdown - Manhunter' to Lantern Year 10
p3317
sVsettlement_id
p3318
g15
(g16
g17
Ntp3319
Rp3320
S'Xk\xeb\x0eJ\xf5\xca\x17\x8d\xfb\xc7\x85'
p3321
bsVly
p3322
I0
sa(dp3323
Vcreated_on
p3324
g10
(S'\x07\xe1\x01\x03\x0c\x126\x0c\xf8P'
p3325
tp3326
Rp3327
sV_id
p3328
g15
(g16
g17
Ntp3329
Rp3330
S'Xk\xeb\x0eJ\xf5\xca\x13\x81\xc9\xb9\xca'
p3331
bsVevent
p3332
VAutomatically added 'Special Showdown - Manhunter' to Lantern Year 16
p3333
sVsettlement_id
p3334
g15
(g16
g17
Ntp3335
Rp3336
S'Xk\xeb\x0eJ\xf5\xca\x17\x8d\xfb\xc7\x85'
p3337
bsVly
p3338
I0
sa(dp3339
Vcreated_on
p3340
g10
(S'\x07\xe1\x01\x03\x0c\x126\r\x00 '
p3341
tp3342
Rp3343
sV_id
p3344
g15
(g16
g17
Ntp3345
Rp3346
S'Xk\xeb\x0eJ\xf5\xca\x13\x81\xc9\xb9\xcb'
p3347
bsVevent
p3348
VAutomatically added 'Special Showdown - Manhunter' to Lantern Year 22
p3349
sVsettlement_id
p3350
g15
(g16
g17
Ntp3351
Rp3352
S'Xk\xeb\x0eJ\xf5\xca\x17\x8d\xfb\xc7\x85'
p3353
bsVly
p3354
I0
sa(dp3355
Vcreated_on
p3356
g10
(S'\x07\xe1\x01\x03\x0c\x126\r\x04\x08'
p3357
tp3358
Rp3359
sV_id
p3360
g15
(g16
g17
Ntp3361
Rp3362
S'Xk\xeb\x0eJ\xf5\xca\x13\x81\xc9\xb9\xcc'
p3363
bsVevent
p3364
VAdding 'White Box' expansion content!
p3365
sVsettlement_id
p3366
g15
(g16
g17
Ntp3367
Rp3368
S'Xk\xeb\x0eJ\xf5\xca\x17\x8d\xfb\xc7\x85'
p3369
bsVly
p3370
I0
sa(dp3371
Vevent_type
p3372
NsVcreated_by
p3373
g15
(g16
g17
Ntp3374
Rp3375
S'Xk\xd1\x9aJ\xf5\xca\x13\xb3\x1a%\xce'
p3376
bsVcreated_on
p3377
g10
(S'\x07\xe1\x01\x03\x0c\x126\r\x13\xa8'
p3378
tp3379
Rp3380
sVsettlement_id
p3381
g15
(g16
g17
Ntp3382
Rp3383
S'Xk\xeb\x0eJ\xf5\xca\x17\x8d\xfb\xc7\x85'
p3384
bsV_id
p3385
g15
(g16
g17
Ntp3386
Rp3387
S'Xk\xeb\x0eJ\xf5\xca\x17\x8d\xfb\xc7\xa2'
p3388
bsVevent
p3389
VHaven founded!
p3390
sVly
p3391
I0
sa(dp3392
Vevent_type
p3393
NsVcreated_by
p3394
g15
(g16
g17
Ntp3395
Rp3396
S'Xk\xd1\x9aJ\xf5\xca\x13\xb3\x1a%\xce'
p3397
bsVcreated_on
p3398
g10
(S'\x07\xe1\x01\x03\x0c\x126\r\x1bx'
p3399
tp3400
Rp3401
sVsettlement_id
p3402
g15
(g16
g17
Ntp3403
Rp3404
S'Xk\xeb\x0eJ\xf5\xca\x17\x8d\xfb\xc7\x85'
p3405
bsV_id
p3406
g15
(g16
g17
Ntp3407
Rp3408
S'Xk\xeb\x0eJ\xf5\xca\x17\x8d\xfb\xc7\xa3'
p3409
bsVevent
p3410
VAutomatically changed population from 0 to 4
p3411
sVly
p3412
I0
sa(dp3413
Vevent_type
p3414
NsVcreated_by
p3415
g15
(g16
g17
Ntp3416
Rp3417
S'Xk\xd1\x9aJ\xf5\xca\x13\xb3\x1a%\xce'
p3418
bsVcreated_on
p3419
g10
(S'\x07\xe1\x01\x03\r\x000\x08\xcd\xe8'
p3420
tp3421
Rp3422
sVsettlement_id
p3423
g15
(g16
g17
Ntp3424
Rp3425
S'Xk\xeb\x0eJ\xf5\xca\x17\x8d\xfb\xc7\x85'
p3426
bsV_id
p3427
g15
(g16
g17
Ntp3428
Rp3429
S'Xk\xf4\xe0J\xf5\xca\x19q|ix'
p3430
bsVevent
p3431
Vqa@kdm-manager.com removed 1 'Founding Stone' item(s) from settlement storage.
p3432
sVly
p3433
I0
sa(dp3434
Vevent_type
p3435
NsVcreated_by
p3436
g15
(g16
g17
Ntp3437
Rp3438
S'Xk\xd1\x9aJ\xf5\xca\x13\xb3\x1a%\xce'
p3439
bsVcreated_on
p3440
g10
(S'\x07\xe1\x01\x03\r\x016\x03\x1c\xe0'
p3441
tp3442
Rp3443
sVsettlement_id
p3444
g15
(g16
g17
Ntp3445
Rp3446
S'Xk\xeb\x0eJ\xf5\xca\x17\x8d\xfb\xc7\x85'
p3447
bsV_id
p3448
g15
(g16
g17
Ntp3449
Rp3450
S'Xk\xf5"J\xf5\xca\x19\xa2\x11k\x1b'
p3451
bsVevent
p3452
Vqa@kdm-manager.com removed 1 'Founding Stone' item(s) from settlement storage.
p3453
sVly
p3454
I0
sa(dp3455
Vevent_type
p3456
NsVcreated_by
p3457
g15
(g16
g17
Ntp3458
Rp3459
S'Xk\xd1\x9aJ\xf5\xca\x13\xb3\x1a%\xce'
p3460
bsVcreated_on
p3461
g10
(S'\x07\xe1\x01\x03\r\x05\x1f\n\xb60'
p3462
tp3463
Rp3464
sVsettlement_id
p3465
g15
(g16
g17
Ntp3466
Rp3467
S'Xk\xeb\x0eJ\xf5\xca\x17\x8d\xfb\xc7\x85'
p3468
bsV_id
p3469
g15
(g16
g17
Ntp3470
Rp3471
S'Xk\xf5\xfbJ\xf5\xca\x19\xeb\xc4\xe8\x8b'
p3472
bsVevent
p3473
VWhite Lion (First Story) defeated!
p3474
sVly
p3475
I0
sa(dp3476
Vevent_type
p3477
NsVcreated_by
p3478
g15
(g16
g17
Ntp3479
Rp3480
S'Xk\xd1\x9aJ\xf5\xca\x13\xb3\x1a%\xce'
p3481
bsVcreated_on
p3482
g10
(S'\x07\xe1\x01\x03\r\x05\x1f\x0c\xb2\x00'
p3483
tp3484
Rp3485
sVsettlement_id
p3486
g15
(g16
g17
Ntp3487
Rp3488
S'Xk\xeb\x0eJ\xf5\xca\x17\x8d\xfb\xc7\x85'
p3489
bsV_id
p3490
g15
(g16
g17
Ntp3491
Rp3492
S'Xk\xf5\xfbJ\xf5\xca\x19\xeb\xc4\xe8\x8c'
p3493
bsVevent
p3494
VAutomatically set endeavor tokens to 4
p3495
sVly
p3496
I0
sa(dp3497
Vevent_type
p3498
NsVcreated_by
p3499
g15
(g16
g17
Ntp3500
Rp3501
S'Xk\xd1\x9aJ\xf5\xca\x13\xb3\x1a%\xce'
p3502
bsVcreated_on
p3503
g10
(S'\x07\xe1\x01\x03\r\x05\x1f\x0c\xb5\xe8'
p3504
tp3505
Rp3506
sVsettlement_id
p3507
g15
(g16
g17
Ntp3508
Rp3509
S'Xk\xeb\x0eJ\xf5\xca\x17\x8d\xfb\xc7\x85'
p3510
bsV_id
p3511
g15
(g16
g17
Ntp3512
Rp3513
S'Xk\xf5\xfbJ\xf5\xca\x19\xeb\xc4\xe8\x8d'
p3514
bsVevent
p3515
VDeparting Survivors (Elena, Maleficent, Oliver, Rashad) have returned in victory!
p3516
sVly
p3517
I0
sa(dp3518
Vevent_type
p3519
NsVcreated_by
p3520
g15
(g16
g17
Ntp3521
Rp3522
S'Xk\xd1\x9aJ\xf5\xca\x13\xb3\x1a%\xce'
p3523
bsVcreated_on
p3524
g10
(S'\x07\xe1\x01\x03\r\x07\x19\x05\x9d\x80'
p3525
tp3526
Rp3527
sVsettlement_id
p3528
g15
(g16
g17
Ntp3529
Rp3530
S'Xk\xeb\x0eJ\xf5\xca\x17\x8d\xfb\xc7\x85'
p3531
bsV_id
p3532
g15
(g16
g17
Ntp3533
Rp3534
S'Xk\xf6mJ\xf5\xca\x19\xf5\xc8\xa3h'
p3535
bsVevent
p3536
Vqa@kdm-manager.com is adding a new survivor to the settlement!
p3537
sVly
p3538
I0
sa(dp3539
Vevent_type
p3540
NsVcreated_by
p3541
g15
(g16
g17
Ntp3542
Rp3543
S'Xk\xd1\x9aJ\xf5\xca\x13\xb3\x1a%\xce'
p3544
bsVcreated_on
p3545
g10
(S'\x07\xe1\x01\x03\r\x07\x19\x05\xa1h'
p3546
tp3547
Rp3548
sVsettlement_id
p3549
g15
(g16
g17
Ntp3550
Rp3551
S'Xk\xeb\x0eJ\xf5\xca\x17\x8d\xfb\xc7\x85'
p3552
bsV_id
p3553
g15
(g16
g17
Ntp3554
Rp3555
S'Xk\xf6mJ\xf5\xca\x19\xf5\xc8\xa3i'
p3556
bsVevent
p3557
VA random name has been assigned to the new survivor due to user preference.
p3558
sVly
p3559
I0
sa(dp3560
Vevent_type
p3561
NsVcreated_by
p3562
g15
(g16
g17
Ntp3563
Rp3564
S'Xk\xd1\x9aJ\xf5\xca\x13\xb3\x1a%\xce'
p3565
bsVcreated_on
p3566
g10
(S'\x07\xe1\x01\x03\r\x07\x19\x05\xa5P'
p3567
tp3568
Rp3569
sVsettlement_id
p3570
g15
(g16
g17
Ntp3571
Rp3572
S'Xk\xeb\x0eJ\xf5\xca\x17\x8d\xfb\xc7\x85'
p3573
bsV_id
p3574
g15
(g16
g17
Ntp3575
Rp3576
S'Xk\xf6mJ\xf5\xca\x19\xf5\xc8\xa3k'
p3577
bsVevent
p3578
VAutomatically adding 1 survival to Fester
p3579
sVly
p3580
I0
sa(dp3581
Vevent_type
p3582
NsVcreated_by
p3583
g15
(g16
g17
Ntp3584
Rp3585
S'Xk\xd1\x9aJ\xf5\xca\x13\xb3\x1a%\xce'
p3586
bsVcreated_on
p3587
g10
(S'\x07\xe1\x01\x03\r\x07\x19\x05\xb4\xf0'
p3588
tp3589
Rp3590
sVsettlement_id
p3591
g15
(g16
g17
Ntp3592
Rp3593
S'Xk\xeb\x0eJ\xf5\xca\x17\x8d\xfb\xc7\x85'
p3594
bsV_id
p3595
g15
(g16
g17
Ntp3596
Rp3597
S'Xk\xf6mJ\xf5\xca\x19\xf5\xc8\xa3l'
p3598
bsVevent
p3599
Vqa@kdm-manager.com is adding a new survivor to the settlement!
p3600
sVly
p3601
I0
sa(dp3602
Vevent_type
p3603
NsVcreated_by
p3604
g15
(g16
g17
Ntp3605
Rp3606
S'Xk\xd1\x9aJ\xf5\xca\x13\xb3\x1a%\xce'
p3607
bsVcreated_on
p3608
g10
(S'\x07\xe1\x01\x03\r\x07\x19\x05\xb8\xd8'
p3609
tp3610
Rp3611
sVsettlement_id
p3612
g15
(g16
g17
Ntp3613
Rp3614
S'Xk\xeb\x0eJ\xf5\xca\x17\x8d\xfb\xc7\x85'
p3615
bsV_id
p3616
g15
(g16
g17
Ntp3617
Rp3618
S'Xk\xf6mJ\xf5\xca\x19\xf5\xc8\xa3m'
p3619
bsVevent
p3620
VA random name has been assigned to the new survivor due to user preference.
p3621
sVly
p3622
I0
sa(dp3623
Vevent_type
p3624
NsVcreated_by
p3625
g15
(g16
g17
Ntp3626
Rp3627
S'Xk\xd1\x9aJ\xf5\xca\x13\xb3\x1a%\xce'
p3628
bsVcreated_on
p3629
g10
(S'\x07\xe1\x01\x03\r\x07\x19\x05\xbc\xc0'
p3630
tp3631
Rp3632
sVsettlement_id
p3633
g15
(g16
g17
Ntp3634
Rp3635
S'Xk\xeb\x0eJ\xf5\xca\x17\x8d\xfb\xc7\x85'
p3636
bsV_id
p3637
g15
(g16
g17
Ntp3638
Rp3639
S'Xk\xf6mJ\xf5\xca\x19\xf5\xc8\xa3o'
p3640
bsVevent
p3641
VAutomatically adding 1 survival to Hipolito
p3642
sVly
p3643
I0
sa(dp3644
Vevent_type
p3645
NsVcreated_by
p3646
g15
(g16
g17
Ntp3647
Rp3648
S'Xk\xd1\x9aJ\xf5\xca\x13\xb3\x1a%\xce'
p3649
bsVcreated_on
p3650
g10
(S'\x07\xe1\x01\x03\r\x07\x19\x05\xcc`'
p3651
tp3652
Rp3653
sVsettlement_id
p3654
g15
(g16
g17
Ntp3655
Rp3656
S'Xk\xeb\x0eJ\xf5\xca\x17\x8d\xfb\xc7\x85'
p3657
bsV_id
p3658
g15
(g16
g17
Ntp3659
Rp3660
S'Xk\xf6mJ\xf5\xca\x19\xf5\xc8\xa3p'
p3661
bsVevent
p3662
Vqa@kdm-manager.com is adding a new survivor to the settlement!
p3663
sVly
p3664
I0
sa(dp3665
Vevent_type
p3666
NsVcreated_by
p3667
g15
(g16
g17
Ntp3668
Rp3669
S'Xk\xd1\x9aJ\xf5\xca\x13\xb3\x1a%\xce'
p3670
bsVcreated_on
p3671
g10
(S'\x07\xe1\x01\x03\r\x07\x19\x05\xcc`'
p3672
tp3673
Rp3674
sVsettlement_id
p3675
g15
(g16
g17
Ntp3676
Rp3677
S'Xk\xeb\x0eJ\xf5\xca\x17\x8d\xfb\xc7\x85'
p3678
bsV_id
p3679
g15
(g16
g17
Ntp3680
Rp3681
S'Xk\xf6mJ\xf5\xca\x19\xf5\xc8\xa3q'
p3682
bsVevent
p3683
VA random name has been assigned to the new survivor due to user preference.
p3684
sVly
p3685
I0
sa(dp3686
Vevent_type
p3687
NsVcreated_by
p3688
g15
(g16
g17
Ntp3689
Rp3690
S'Xk\xd1\x9aJ\xf5\xca\x13\xb3\x1a%\xce'
p3691
bsVcreated_on
p3692
g10
(S'\x07\xe1\x01\x03\r\x07\x19\x05\xd0H'
p3693
tp3694
Rp3695
sVsettlement_id
p3696
g15
(g16
g17
Ntp3697
Rp3698
S'Xk\xeb\x0eJ\xf5\xca\x17\x8d\xfb\xc7\x85'
p3699
bsV_id
p3700
g15
(g16
g17
Ntp3701
Rp3702
S'Xk\xf6mJ\xf5\xca\x19\xf5\xc8\xa3s'
p3703
bsVevent
p3704
VAutomatically adding 1 survival to Brooks
p3705
sVly
p3706
I0
sa(dp3707
Vevent_type
p3708
NsVcreated_by
p3709
g15
(g16
g17
Ntp3710
Rp3711
S'Xk\xd1\x9aJ\xf5\xca\x13\xb3\x1a%\xce'
p3712
bsVcreated_on
p3713
g10
(S'\x07\xe1\x01\x03\r\x07\x19\x05\xdf\xe8'
p3714
tp3715
Rp3716
sVsettlement_id
p3717
g15
(g16
g17
Ntp3718
Rp3719
S'Xk\xeb\x0eJ\xf5\xca\x17\x8d\xfb\xc7\x85'
p3720
bsV_id
p3721
g15
(g16
g17
Ntp3722
Rp3723
S'Xk\xf6mJ\xf5\xca\x19\xf5\xc8\xa3t'
p3724
bsVevent
p3725
Vqa@kdm-manager.com is adding a new survivor to the settlement!
p3726
sVly
p3727
I0
sa(dp3728
Vevent_type
p3729
NsVcreated_by
p3730
g15
(g16
g17
Ntp3731
Rp3732
S'Xk\xd1\x9aJ\xf5\xca\x13\xb3\x1a%\xce'
p3733
bsVcreated_on
p3734
g10
(S'\x07\xe1\x01\x03\r\x07\x19\x05\xdf\xe8'
p3735
tp3736
Rp3737
sVsettlement_id
p3738
g15
(g16
g17
Ntp3739
Rp3740
S'Xk\xeb\x0eJ\xf5\xca\x17\x8d\xfb\xc7\x85'
p3741
bsV_id
p3742
g15
(g16
g17
Ntp3743
Rp3744
S'Xk\xf6mJ\xf5\xca\x19\xf5\xc8\xa3u'
p3745
bsVevent
p3746
VA random name has been assigned to the new survivor due to user preference.
p3747
sVly
p3748
I0
sa(dp3749
Vevent_type
p3750
NsVcreated_by
p3751
g15
(g16
g17
Ntp3752
Rp3753
S'Xk\xd1\x9aJ\xf5\xca\x13\xb3\x1a%\xce'
p3754
bsVcreated_on
p3755
g10
(S'\x07\xe1\x01\x03\r\x07\x19\x05\xe7\xb8'
p3756
tp3757
Rp3758
sVsettlement_id
p3759
g15
(g16
g17
Ntp3760
Rp3761
S'Xk\xeb\x0eJ\xf5\xca\x17\x8d\xfb\xc7\x85'
p3762
bsV_id
p3763
g15
(g16
g17
Ntp3764
Rp3765
S'Xk\xf6mJ\xf5\xca\x19\xf5\xc8\xa3w'
p3766
bsVevent
p3767
VAutomatically adding 1 survival to Killian
p3768
sVly
p3769
I0
sa(dp3770
Vevent_type
p3771
NsVcreated_by
p3772
g15
(g16
g17
Ntp3773
Rp3774
S'Xk\xd1\x9aJ\xf5\xca\x13\xb3\x1a%\xce'
p3775
bsVcreated_on
p3776
g10
(S'\x07\xe1\x01\x03\r\x07\x19\x05\xf3p'
p3777
tp3778
Rp3779
sVsettlement_id
p3780
g15
(g16
g17
Ntp3781
Rp3782
S'Xk\xeb\x0eJ\xf5\xca\x17\x8d\xfb\xc7\x85'
p3783
bsV_id
p3784
g15
(g16
g17
Ntp3785
Rp3786
S'Xk\xf6mJ\xf5\xca\x19\xf5\xc8\xa3x'
p3787
bsVevent
p3788
Vqa@kdm-manager.com is adding a new survivor to the settlement!
p3789
sVly
p3790
I0
sa(dp3791
Vevent_type
p3792
NsVcreated_by
p3793
g15
(g16
g17
Ntp3794
Rp3795
S'Xk\xd1\x9aJ\xf5\xca\x13\xb3\x1a%\xce'
p3796
bsVcreated_on
p3797
g10
(S'\x07\xe1\x01\x03\r\x07\x19\x05\xf7X'
p3798
tp3799
Rp3800
sVsettlement_id
p3801
g15
(g16
g17
Ntp3802
Rp3803
S'Xk\xeb\x0eJ\xf5\xca\x17\x8d\xfb\xc7\x85'
p3804
bsV_id
p3805
g15
(g16
g17
Ntp3806
Rp3807
S'Xk\xf6mJ\xf5\xca\x19\xf5\xc8\xa3y'
p3808
bsVevent
p3809
VA random name has been assigned to the new survivor due to user preference.
p3810
sVly
p3811
I0
sa(dp3812
Vevent_type
p3813
NsVcreated_by
p3814
g15
(g16
g17
Ntp3815
Rp3816
S'Xk\xd1\x9aJ\xf5\xca\x13\xb3\x1a%\xce'
p3817
bsVcreated_on
p3818
g10
(S'\x07\xe1\x01\x03\r\x07\x19\x05\xfb@'
p3819
tp3820
Rp3821
sVsettlement_id
p3822
g15
(g16
g17
Ntp3823
Rp3824
S'Xk\xeb\x0eJ\xf5\xca\x17\x8d\xfb\xc7\x85'
p3825
bsV_id
p3826
g15
(g16
g17
Ntp3827
Rp3828
S'Xk\xf6mJ\xf5\xca\x19\xf5\xc8\xa3{'
p3829
bsVevent
p3830
VAutomatically adding 1 survival to Genevieve
p3831
sVly
p3832
I0
sa(dp3833
Vevent_type
p3834
NsVcreated_by
p3835
g15
(g16
g17
Ntp3836
Rp3837
S'Xk\xd1\x9aJ\xf5\xca\x13\xb3\x1a%\xce'
p3838
bsVcreated_on
p3839
g10
(S'\x07\xe1\x01\x03\r\x07\x19\x06\x06\xf8'
p3840
tp3841
Rp3842
sVsettlement_id
p3843
g15
(g16
g17
Ntp3844
Rp3845
S'Xk\xeb\x0eJ\xf5\xca\x17\x8d\xfb\xc7\x85'
p3846
bsV_id
p3847
g15
(g16
g17
Ntp3848
Rp3849
S'Xk\xf6mJ\xf5\xca\x19\xf5\xc8\xa3|'
p3850
bsVevent
p3851
Vqa@kdm-manager.com is adding a new survivor to the settlement!
p3852
sVly
p3853
I0
sa(dp3854
Vevent_type
p3855
NsVcreated_by
p3856
g15
(g16
g17
Ntp3857
Rp3858
S'Xk\xd1\x9aJ\xf5\xca\x13\xb3\x1a%\xce'
p3859
bsVcreated_on
p3860
g10
(S'\x07\xe1\x01\x03\r\x07\x19\x06\n\xe0'
p3861
tp3862
Rp3863
sVsettlement_id
p3864
g15
(g16
g17
Ntp3865
Rp3866
S'Xk\xeb\x0eJ\xf5\xca\x17\x8d\xfb\xc7\x85'
p3867
bsV_id
p3868
g15
(g16
g17
Ntp3869
Rp3870
S'Xk\xf6mJ\xf5\xca\x19\xf5\xc8\xa3}'
p3871
bsVevent
p3872
VA random name has been assigned to the new survivor due to user preference.
p3873
sVly
p3874
I0
sa(dp3875
Vevent_type
p3876
NsVcreated_by
p3877
g15
(g16
g17
Ntp3878
Rp3879
S'Xk\xd1\x9aJ\xf5\xca\x13\xb3\x1a%\xce'
p3880
bsVcreated_on
p3881
g10
(S'\x07\xe1\x01\x03\r\x07\x19\x06\x0e\xc8'
p3882
tp3883
Rp3884
sVsettlement_id
p3885
g15
(g16
g17
Ntp3886
Rp3887
S'Xk\xeb\x0eJ\xf5\xca\x17\x8d\xfb\xc7\x85'
p3888
bsV_id
p3889
g15
(g16
g17
Ntp3890
Rp3891
S'Xk\xf6mJ\xf5\xca\x19\xf5\xc8\xa3\x7f'
p3892
bsVevent
p3893
VAutomatically adding 1 survival to Desdemona
p3894
sVly
p3895
I0
sa(dp3896
Vevent_type
p3897
NsVcreated_by
p3898
g15
(g16
g17
Ntp3899
Rp3900
S'Xk\xd1\x9aJ\xf5\xca\x13\xb3\x1a%\xce'
p3901
bsVcreated_on
p3902
g10
(S'\x07\xe1\x01\x03\r\x07\x19\x06\x1eh'
p3903
tp3904
Rp3905
sVsettlement_id
p3906
g15
(g16
g17
Ntp3907
Rp3908
S'Xk\xeb\x0eJ\xf5\xca\x17\x8d\xfb\xc7\x85'
p3909
bsV_id
p3910
g15
(g16
g17
Ntp3911
Rp3912
S'Xk\xf6mJ\xf5\xca\x19\xf5\xc8\xa3\x80'
p3913
bsVevent
p3914
Vqa@kdm-manager.com is adding a new survivor to the settlement!
p3915
sVly
p3916
I0
sa(dp3917
Vevent_type
p3918
NsVcreated_by
p3919
g15
(g16
g17
Ntp3920
Rp3921
S'Xk\xd1\x9aJ\xf5\xca\x13\xb3\x1a%\xce'
p3922
bsVcreated_on
p3923
g10
(S'\x07\xe1\x01\x03\r\x07\x19\x06\x1eh'
p3924
tp3925
Rp3926
sVsettlement_id
p3927
g15
(g16
g17
Ntp3928
Rp3929
S'Xk\xeb\x0eJ\xf5\xca\x17\x8d\xfb\xc7\x85'
p3930
bsV_id
p3931
g15
(g16
g17
Ntp3932
Rp3933
S'Xk\xf6mJ\xf5\xca\x19\xf5\xc8\xa3\x81'
p3934
bsVevent
p3935
VA random name has been assigned to the new survivor due to user preference.
p3936
sVly
p3937
I0
sa(dp3938
Vevent_type
p3939
NsVcreated_by
p3940
g15
(g16
g17
Ntp3941
Rp3942
S'Xk\xd1\x9aJ\xf5\xca\x13\xb3\x1a%\xce'
p3943
bsVcreated_on
p3944
g10
(S'\x07\xe1\x01\x03\r\x07\x19\x06&8'
p3945
tp3946
Rp3947
sVsettlement_id
p3948
g15
(g16
g17
Ntp3949
Rp3950
S'Xk\xeb\x0eJ\xf5\xca\x17\x8d\xfb\xc7\x85'
p3951
bsV_id
p3952
g15
(g16
g17
Ntp3953
Rp3954
S'Xk\xf6mJ\xf5\xca\x19\xf5\xc8\xa3\x83'
p3955
bsVevent
p3956
VAutomatically adding 1 survival to Diana
p3957
sVly
p3958
I0
sa(dp3959
Vevent_type
p3960
NsVcreated_by
p3961
g15
(g16
g17
Ntp3962
Rp3963
S'Xk\xd1\x9aJ\xf5\xca\x13\xb3\x1a%\xce'
p3964
bsVcreated_on
p3965
g10
(S'\x07\xe1\x01\x03\r\x07\x19\x06x@'
p3966
tp3967
Rp3968
sVsettlement_id
p3969
g15
(g16
g17
Ntp3970
Rp3971
S'Xk\xeb\x0eJ\xf5\xca\x17\x8d\xfb\xc7\x85'
p3972
bsV_id
p3973
g15
(g16
g17
Ntp3974
Rp3975
S'Xk\xf6mJ\xf5\xca\x19\xf5\xc8\xa3\x84'
p3976
bsVevent
p3977
Vqa@kdm-manager.com is adding a new survivor to the settlement!
p3978
sVly
p3979
I0
sa(dp3980
Vevent_type
p3981
NsVcreated_by
p3982
g15
(g16
g17
Ntp3983
Rp3984
S'Xk\xd1\x9aJ\xf5\xca\x13\xb3\x1a%\xce'
p3985
bsVcreated_on
p3986
g10
(S'\x07\xe1\x01\x03\r\x07\x19\x06x@'
p3987
tp3988
Rp3989
sVsettlement_id
p3990
g15
(g16
g17
Ntp3991
Rp3992
S'Xk\xeb\x0eJ\xf5\xca\x17\x8d\xfb\xc7\x85'
p3993
bsV_id
p3994
g15
(g16
g17
Ntp3995
Rp3996
S'Xk\xf6mJ\xf5\xca\x19\xf5\xc8\xa3\x85'
p3997
bsVevent
p3998
VA random name has been assigned to the new survivor due to user preference.
p3999
sVly
p4000
I0
sa(dp4001
Vevent_type
p4002
NsVcreated_by
p4003
g15
(g16
g17
Ntp4004
Rp4005
S'Xk\xd1\x9aJ\xf5\xca\x13\xb3\x1a%\xce'
p4006
bsVcreated_on
p4007
g10
(S'\x07\xe1\x01\x03\r\x07\x19\x06\x80\x10'
p4008
tp4009
Rp4010
sVsettlement_id
p4011
g15
(g16
g17
Ntp4012
Rp4013
S'Xk\xeb\x0eJ\xf5\xca\x17\x8d\xfb\xc7\x85'
p4014
bsV_id
p4015
g15
(g16
g17
Ntp4016
Rp4017
S'Xk\xf6mJ\xf5\xca\x19\xf5\xc8\xa3\x87'
p4018
bsVevent
p4019
VAutomatically adding 1 survival to Raina
p4020
sVly
p4021
I0
sa(dp4022
Vevent_type
p4023
NsVcreated_by
p4024
g15
(g16
g17
Ntp4025
Rp4026
S'Xk\xd1\x9aJ\xf5\xca\x13\xb3\x1a%\xce'
p4027
bsVcreated_on
p4028
g10
(S'\x07\xe1\x01\x03\r\x07\x19\x06\x8b\xc8'
p4029
tp4030
Rp4031
sVsettlement_id
p4032
g15
(g16
g17
Ntp4033
Rp4034
S'Xk\xeb\x0eJ\xf5\xca\x17\x8d\xfb\xc7\x85'
p4035
bsV_id
p4036
g15
(g16
g17
Ntp4037
Rp4038
S'Xk\xf6mJ\xf5\xca\x19\xf5\xc8\xa3\x88'
p4039
bsVevent
p4040
Vqa@kdm-manager.com (586bd19a4af5ca13b31a25ce) added 4 male and 4 female survivors to Haven!
p4041
sVly
p4042
I0
sa(dp4043
Vevent_type
p4044
NsVcreated_by
p4045
g15
(g16
g17
Ntp4046
Rp4047
S'Xk\xd1\x9aJ\xf5\xca\x13\xb3\x1a%\xce'
p4048
bsVcreated_on
p4049
g10
(S"\x07\xe1\x01\x03\r\x07\x19\t'\xc0"
p4050
tp4051
Rp4052
sVsettlement_id
p4053
g15
(g16
g17
Ntp4054
Rp4055
S'Xk\xeb\x0eJ\xf5\xca\x17\x8d\xfb\xc7\x85'
p4056
bsV_id
p4057
g15
(g16
g17
Ntp4058
Rp4059
S'Xk\xf6mJ\xf5\xca\x19\xf5\xc8\xa3\x89'
p4060
bsVevent
p4061
VAutomatically changed population from 4 to 12
p4062
sVly
p4063
I0
sa(dp4064
Vevent_type
p4065
NsVcreated_by
p4066
g15
(g16
g17
Ntp4067
Rp4068
S'Xk\xd1\x9aJ\xf5\xca\x13\xb3\x1a%\xce'
p4069
bsVcreated_on
p4070
g10
(S"\x07\xe1\x01\x03\r'0\x07;\x90"
p4071
tp4072
Rp4073
sVsettlement_id
p4074
g15
(g16
g17
Ntp4075
Rp4076
S'Xk\xeb\x0eJ\xf5\xca\x17\x8d\xfb\xc7\x85'
p4077
bsV_id
p4078
g15
(g16
g17
Ntp4079
Rp4080
S'Xk\xfe\x04J\xf5\xca\x1cl5\x86a'
p4081
bsVevent
p4082
VLanguage added to settlement Innovations!
p4083
sVly
p4084
V1
p4085
sa(dp4086
Vevent_type
p4087
NsVcreated_by
p4088
g15
(g16
g17
Ntp4089
Rp4090
S'Xk\xd1\x9aJ\xf5\xca\x13\xb3\x1a%\xce'
p4091
bsVcreated_on
p4092
g10
(S"\x07\xe1\x01\x03\r'0\x07GH"
p4093
tp4094
Rp4095
sVsettlement_id
p4096
g15
(g16
g17
Ntp4097
Rp4098
S'Xk\xeb\x0eJ\xf5\xca\x17\x8d\xfb\xc7\x85'
p4099
bsV_id
p4100
g15
(g16
g17
Ntp4101
Rp4102
S'Xk\xfe\x04J\xf5\xca\x1cl5\x86b'
p4103
bsVevent
p4104
VAutomatically changed survival limit from 1 to 2
p4105
sVly
p4106
V1
p4107
sa(dp4108
Vevent_type
p4109
NsVcreated_by
p4110
g15
(g16
g17
Ntp4111
Rp4112
S'Xk\xd1\x9aJ\xf5\xca\x13\xb3\x1a%\xce'
p4113
bsVcreated_on
p4114
g10
(S'\x07\xe1\x01\x03\r)\x1b\x0c{P'
p4115
tp4116
Rp4117
sVsettlement_id
p4118
g15
(g16
g17
Ntp4119
Rp4120
S'Xk\xeb\x0eJ\xf5\xca\x17\x8d\xfb\xc7\x85'
p4121
bsV_id
p4122
g15
(g16
g17
Ntp4123
Rp4124
S'Xk\xfegJ\xf5\xca\x1c\xcf\xd4#\xe8'
p4125
bsVevent
p4126
Vqa@kdm-manager.com added Lantern Hoard to settlement locations.
p4127
sVly
p4128
V1
p4129
sa(dp4130
Vevent_type
p4131
NsVcreated_by
p4132
g15
(g16
g17
Ntp4133
Rp4134
S'Xk\xd1\x9aJ\xf5\xca\x13\xb3\x1a%\xce'
p4135
bsVcreated_on
p4136
g10
(S'\x07\xe1\x01\x03\r-\x0e\r]\xe0'
p4137
tp4138
Rp4139
sVsettlement_id
p4140
g15
(g16
g17
Ntp4141
Rp4142
S'Xk\xeb\x0eJ\xf5\xca\x17\x8d\xfb\xc7\x85'
p4143
bsV_id
p4144
g15
(g16
g17
Ntp4145
Rp4146
S'Xk\xffJJ\xf5\xca\x1d\x7f\xf0\x17\x14'
p4147
bsVevent
p4148
Vqa@kdm-manager.com added Organ Grinder to settlement locations.
p4149
sVly
p4150
V1
p4151
sa(dp4152
Vevent_type
p4153
NsVcreated_by
p4154
g15
(g16
g17
Ntp4155
Rp4156
S'Xk\xd1\x9aJ\xf5\xca\x13\xb3\x1a%\xce'
p4157
bsVcreated_on
p4158
g10
(S'\x07\xe1\x01\x03\r.\x10\x06tX'
p4159
tp4160
Rp4161
sVsettlement_id
p4162
g15
(g16
g17
Ntp4163
Rp4164
S'Xk\xeb\x0eJ\xf5\xca\x17\x8d\xfb\xc7\x85'
p4165
bsV_id
p4166
g15
(g16
g17
Ntp4167
Rp4168
S'Xk\xff\x88J\xf5\xca\x1d\xca\x12`h'
p4169
bsVevent
p4170
Vqa@kdm-manager.com added Skinnery to settlement locations.
p4171
sVly
p4172
V1
p4173
sa(dp4174
Vevent_type
p4175
NsVcreated_by
p4176
g15
(g16
g17
Ntp4177
Rp4178
S'Xk\xd1\x9aJ\xf5\xca\x13\xb3\x1a%\xce'
p4179
bsVcreated_on
p4180
g10
(S'\x07\xe1\x01\x03\r/,\x0f*\xd0'
p4181
tp4182
Rp4183
sVsettlement_id
p4184
g15
(g16
g17
Ntp4185
Rp4186
S'Xk\xeb\x0eJ\xf5\xca\x17\x8d\xfb\xc7\x85'
p4187
bsV_id
p4188
g15
(g16
g17
Ntp4189
Rp4190
S'Xk\xff\xe0J\xf5\xca\x1d\xfaj`\x03'
p4191
bsVevent
p4192
Vqa@kdm-manager.com added Bone Smith to settlement locations.
p4193
sVly
p4194
V1
p4195
sa(dp4196
Vevent_type
p4197
NsVcreated_by
p4198
g15
(g16
g17
Ntp4199
Rp4200
S'Xk\xd1\x9aJ\xf5\xca\x13\xb3\x1a%\xce'
p4201
bsVcreated_on
p4202
g10
(S'\x07\xe1\x01\x03\r2\x04\x0b\xd7@'
p4203
tp4204
Rp4205
sVsettlement_id
p4206
g15
(g16
g17
Ntp4207
Rp4208
S'Xk\xeb\x0eJ\xf5\xca\x17\x8d\xfb\xc7\x85'
p4209
bsV_id
p4210
g15
(g16
g17
Ntp4211
Rp4212
S'Xl\x00lJ\xf5\xca\x1ei\x14#\x9b'
p4213
bsVevent
p4214
Vqa@kdm-manager.com added 'Bone Blade' x2 to settlement storage.
p4215
sVly
p4216
V1
p4217
sa(dp4218
Vevent_type
p4219
NsVcreated_by
p4220
g15
(g16
g17
Ntp4221
Rp4222
S'Xk\xd1\x9aJ\xf5\xca\x13\xb3\x1a%\xce'
p4223
bsVcreated_on
p4224
g10
(S'\x07\xe1\x01\x03\r2\x17\t3x'
p4225
tp4226
Rp4227
sVsettlement_id
p4228
g15
(g16
g17
Ntp4229
Rp4230
S'Xk\xeb\x0eJ\xf5\xca\x17\x8d\xfb\xc7\x85'
p4231
bsV_id
p4232
g15
(g16
g17
Ntp4233
Rp4234
S'Xl\x00\x7fJ\xf5\xca\x1e~\xcbh\xf8'
p4235
bsVevent
p4236
Vqa@kdm-manager.com removed 1 'Bone Blade' item(s) from settlement storage.
p4237
sVly
p4238
V1
p4239
sa(dp4240
Vevent_type
p4241
NsVcreated_by
p4242
g15
(g16
g17
Ntp4243
Rp4244
S'Xk\xd1\x9aJ\xf5\xca\x13\xb3\x1a%\xce'
p4245
bsVcreated_on
p4246
g10
(S'\x07\xe1\x01\x03\r2,\x0c\x92\xc0'
p4247
tp4248
Rp4249
sVsettlement_id
p4250
g15
(g16
g17
Ntp4251
Rp4252
S'Xk\xeb\x0eJ\xf5\xca\x17\x8d\xfb\xc7\x85'
p4253
bsV_id
p4254
g15
(g16
g17
Ntp4255
Rp4256
S'Xl\x00\x94J\xf5\xca\x1e\x86)Q\xd2'
p4257
bsVevent
p4258
Vqa@kdm-manager.com added 'Bone Axe' x1 to settlement storage.
p4259
sVly
p4260
V1
p4261
sa(dp4262
Vevent_type
p4263
NsVcreated_by
p4264
g15
(g16
g17
Ntp4265
Rp4266
S'Xk\xd1\x9aJ\xf5\xca\x13\xb3\x1a%\xce'
p4267
bsVcreated_on
p4268
g10
(S'\x07\xe1\x01\x03\r3\x02\x0c\x1d\x90'
p4269
tp4270
Rp4271
sVsettlement_id
p4272
g15
(g16
g17
Ntp4273
Rp4274
S'Xk\xeb\x0eJ\xf5\xca\x17\x8d\xfb\xc7\x85'
p4275
bsV_id
p4276
g15
(g16
g17
Ntp4277
Rp4278
S'Xl\x00\xa6J\xf5\xca\x1e\x9a\xf6\xa8='
p4279
bsVevent
p4280
Vqa@kdm-manager.com added 'Lion Testes' x1 to settlement storage.
p4281
sVly
p4282
V1
p4283
sa(dp4284
Vevent_type
p4285
NsVcreated_by
p4286
g15
(g16
g17
Ntp4287
Rp4288
S'Xk\xd1\x9aJ\xf5\xca\x13\xb3\x1a%\xce'
p4289
bsVcreated_on
p4290
g10
(S'\x07\xe1\x01\x03\r5\x03\x02\xd2\xa8'
p4291
tp4292
Rp4293
sVsettlement_id
p4294
g15
(g16
g17
Ntp4295
Rp4296
S'Xk\xeb\x0eJ\xf5\xca\x17\x8d\xfb\xc7\x85'
p4297
bsV_id
p4298
g15
(g16
g17
Ntp4299
Rp4300
S'Xl\x01\x1fJ\xf5\xca\x1f\x1d\xe1\xb5\xc4'
p4301
bsVevent
p4302
Vqa@kdm-manager.com added 'Monster Grease' x1 to settlement storage.
p4303
sVly
p4304
V1
p4305
sa(dp4306
Vevent_type
p4307
NsVcreated_by
p4308
g15
(g16
g17
Ntp4309
Rp4310
S'Xk\xd1\x9aJ\xf5\xca\x13\xb3\x1a%\xce'
p4311
bsVcreated_on
p4312
g10
(S'\x07\xe1\x01\x03\r5\x14\x0ec\x98'
p4313
tp4314
Rp4315
sVsettlement_id
p4316
g15
(g16
g17
Ntp4317
Rp4318
S'Xk\xeb\x0eJ\xf5\xca\x17\x8d\xfb\xc7\x85'
p4319
bsV_id
p4320
g15
(g16
g17
Ntp4321
Rp4322
S'Xl\x010J\xf5\xca\x1f%\xe2\n '
p4323
bsVevent
p4324
Vqa@kdm-manager.com added 'Rawhide Boots' x1 to settlement storage.
p4325
sVly
p4326
V1
p4327
sa(dp4328
Vevent_type
p4329
NsVcreated_by
p4330
g15
(g16
g17
Ntp4331
Rp4332
S'Xk\xd1\x9aJ\xf5\xca\x13\xb3\x1a%\xce'
p4333
bsVcreated_on
p4334
g10
(S'\x07\xe1\x01\x03\r50\x0f\x1f\x18'
p4335
tp4336
Rp4337
sVsettlement_id
p4338
g15
(g16
g17
Ntp4339
Rp4340
S'Xk\xeb\x0eJ\xf5\xca\x17\x8d\xfb\xc7\x85'
p4341
bsV_id
p4342
g15
(g16
g17
Ntp4343
Rp4344
S'Xl\x01LJ\xf5\xca\x1f:f\xfe4'
p4345
bsVevent
p4346
Vqa@kdm-manager.com added 'Rawhide Boots' x1 to settlement storage.
p4347
sVly
p4348
V1
p4349
sa(dp4350
Vevent_type
p4351
NsVcreated_by
p4352
g15
(g16
g17
Ntp4353
Rp4354
S'Xk\xd1\x9aJ\xf5\xca\x13\xb3\x1a%\xce'
p4355
bsVcreated_on
p4356
g10
(S'\x07\xe1\x01\x03\r5:\x07\xfa\xf8'
p4357
tp4358
Rp4359
sVsettlement_id
p4360
g15
(g16
g17
Ntp4361
Rp4362
S'Xk\xeb\x0eJ\xf5\xca\x17\x8d\xfb\xc7\x85'
p4363
bsV_id
p4364
g15
(g16
g17
Ntp4365
Rp4366
S'Xl\x01VJ\xf5\xca\x1fB\xdf\x1b\xf2'
p4367
bsVevent
p4368
Vqa@kdm-manager.com added 'Rawhide Gloves' x1 to settlement storage.
p4369
sVly
p4370
V1
p4371
sa(dp4372
Vevent_type
p4373
NsVcreated_by
p4374
g15
(g16
g17
Ntp4375
Rp4376
S'Xk\xd1\x9aJ\xf5\xca\x13\xb3\x1a%\xce'
p4377
bsVcreated_on
p4378
g10
(S'\x07\xe1\x01\x03\r6\n\x05\x14\xc8'
p4379
tp4380
Rp4381
sVsettlement_id
p4382
g15
(g16
g17
Ntp4383
Rp4384
S'Xk\xeb\x0eJ\xf5\xca\x17\x8d\xfb\xc7\x85'
p4385
bsV_id
p4386
g15
(g16
g17
Ntp4387
Rp4388
S'Xl\x01bJ\xf5\xca\x1fV\xbf\xfb\x8c'
p4389
bsVevent
p4390
Vqa@kdm-manager.com added 'Rawhide Headband' x1 to settlement storage.
p4391
sVly
p4392
V1
p4393
sa(dp4394
Vevent_type
p4395
NsVcreated_by
p4396
g15
(g16
g17
Ntp4397
Rp4398
S'Xk\xd1\x9aJ\xf5\xca\x13\xb3\x1a%\xce'
p4399
bsVcreated_on
p4400
g10
(S'\x07\xe1\x01\x03\r6#\x05\xb1\x08'
p4401
tp4402
Rp4403
sVsettlement_id
p4404
g15
(g16
g17
Ntp4405
Rp4406
S'Xk\xeb\x0eJ\xf5\xca\x17\x8d\xfb\xc7\x85'
p4407
bsV_id
p4408
g15
(g16
g17
Ntp4409
Rp4410
S'Xl\x01{J\xf5\xca\x1fj\xde.0'
p4411
bsVevent
p4412
Vqa@kdm-manager.com added 'Monster Organ' x1 to settlement storage.
p4413
sVly
p4414
V1
p4415
sasS'avatars'
p4416
(lp4417
s.
